
Allocating common symbols
Common symbol       size              file

netbufpool          0x4               binaries/net.o
remote_debug        0x4               binaries/i386-stub.o
readylist           0x2               binaries/ready.o
rfltab              0x5a0             binaries/rflinit.o
sleepq              0x2               binaries/clkinit.o
nnames              0x4               binaries/naminit.o
registers           0x40              binaries/i386-stub.o
udptab              0x168             binaries/udp.o
minheap             0x4               binaries/meminit.o
marks               0x50              binaries/mark.o
currpid             0x4               binaries/initialize.o
Lf_data             0x20c             binaries/lfsinit.o
porttab             0x2d0             binaries/ptinit.o
girmask             0x2               binaries/evec.o
ttytab              0x10c             binaries/ttyinit.o
proctab             0x2710            binaries/initialize.o
sendWaitcount       0x4               binaries/initialize.o
prcount             0x4               binaries/initialize.o
lfltab              0xf00             binaries/lflinit.o
rdstab              0x8c              binaries/rdsinit.o
ethertab            0x138             binaries/ethinit.o
NetData             0xa8              binaries/net.o
nmarks              0x4               binaries/mark.o
Defer               0x8               binaries/resched.o
semtab              0x4b0             binaries/initialize.o
maxheap             0x4               binaries/meminit.o
preempt             0x4               binaries/clkinit.o
buftab              0xf0              binaries/bufinit.o
Rf_data             0x18              binaries/rfsinit.o
mkmutex             0x4               binaries/mark.o
remcomStack         0x2710            binaries/i386-stub.o
clktime             0x4               binaries/clkinit.o
arpcache            0x140             binaries/arp.o
icmptab             0x230             binaries/icmp.o
nbpools             0x4               binaries/bufinit.o
queuetab            0xfc0             binaries/queue.o
ptnextid            0x4               binaries/ptinit.o
Ram                 0x19000           binaries/raminit.o
gdb_i386errcode     0x4               binaries/i386-stub.o
ipoqueue            0x2c              binaries/ip.o
memlist             0x8               binaries/initialize.o
nametab             0x19a0            binaries/naminit.o
ptfree              0x4               binaries/ptinit.o

Discarded input sections

 .group         0x0000000000000000        0x8 binaries/ascdate.o
 .group         0x0000000000000000        0x8 binaries/bufinit.o
 .group         0x0000000000000000        0x8 binaries/cbreg.o
 .text.__x86.get_pc_thunk.bx
                0x0000000000000000        0x4 binaries/cbreg.o
 .group         0x0000000000000000        0x8 binaries/chprio.o
 .text.__x86.get_pc_thunk.bx
                0x0000000000000000        0x4 binaries/chprio.o
 .group         0x0000000000000000        0x8 binaries/clkhandler.o
 .text.__x86.get_pc_thunk.bx
                0x0000000000000000        0x4 binaries/clkhandler.o
 .group         0x0000000000000000        0x8 binaries/clkinit.o
 .text.__x86.get_pc_thunk.bx
                0x0000000000000000        0x4 binaries/clkinit.o
 .group         0x0000000000000000        0x8 binaries/close.o
 .text.__x86.get_pc_thunk.bx
                0x0000000000000000        0x4 binaries/close.o
 .group         0x0000000000000000        0x8 binaries/control.o
 .text.__x86.get_pc_thunk.bx
                0x0000000000000000        0x4 binaries/control.o
 .group         0x0000000000000000        0x8 binaries/create.o
 .text.__x86.get_pc_thunk.bx
                0x0000000000000000        0x4 binaries/create.o
 .group         0x0000000000000000        0x8 binaries/early_imr.o
 .text.__x86.get_pc_thunk.bx
                0x0000000000000000        0x4 binaries/early_imr.o
 .group         0x0000000000000000        0x8 binaries/evec.o
 .text.__x86.get_pc_thunk.bx
                0x0000000000000000        0x4 binaries/evec.o
 .group         0x0000000000000000        0x8 binaries/freebuf.o
 .text.__x86.get_pc_thunk.bx
                0x0000000000000000        0x4 binaries/freebuf.o
 .group         0x0000000000000000        0x8 binaries/freemem.o
 .text.__x86.get_pc_thunk.bx
                0x0000000000000000        0x4 binaries/freemem.o
 .group         0x0000000000000000        0x8 binaries/getbuf.o
 .text.__x86.get_pc_thunk.bx
                0x0000000000000000        0x4 binaries/getbuf.o
 .group         0x0000000000000000        0x8 binaries/getc.o
 .text.__x86.get_pc_thunk.bx
                0x0000000000000000        0x4 binaries/getc.o
 .group         0x0000000000000000        0x8 binaries/getdev.o
 .text.__x86.get_pc_thunk.bx
                0x0000000000000000        0x4 binaries/getdev.o
 .group         0x0000000000000000        0x8 binaries/getitem.o
 .group         0x0000000000000000        0x8 binaries/getitem.o
 .text.__x86.get_pc_thunk.ax
                0x0000000000000000        0x4 binaries/getitem.o
 .group         0x0000000000000000        0x8 binaries/getmem.o
 .text.__x86.get_pc_thunk.bx
                0x0000000000000000        0x4 binaries/getmem.o
 .group         0x0000000000000000        0x8 binaries/getpid.o
 .text.__x86.get_pc_thunk.ax
                0x0000000000000000        0x4 binaries/getpid.o
 .group         0x0000000000000000        0x8 binaries/getprio.o
 .text.__x86.get_pc_thunk.bx
                0x0000000000000000        0x4 binaries/getprio.o
 .group         0x0000000000000000        0x8 binaries/getstk.o
 .text.__x86.get_pc_thunk.bx
                0x0000000000000000        0x4 binaries/getstk.o
 .group         0x0000000000000000        0x8 binaries/gettime.o
 .text.__x86.get_pc_thunk.bx
                0x0000000000000000        0x4 binaries/gettime.o
 .group         0x0000000000000000        0x8 binaries/getutime.o
 .text.__x86.get_pc_thunk.bx
                0x0000000000000000        0x4 binaries/getutime.o
 .group         0x0000000000000000        0x8 binaries/i386-stub.o
 .group         0x0000000000000000        0x8 binaries/i386-stub.o
 .group         0x0000000000000000        0x8 binaries/i386-stub.o
 .group         0x0000000000000000        0x8 binaries/i386-stub.o
 .group         0x0000000000000000        0x8 binaries/i386-stub.o
 .group         0x0000000000000000        0x8 binaries/i386-stub.o
 .text.__x86.get_pc_thunk.ax
                0x0000000000000000        0x4 binaries/i386-stub.o
 .text.__x86.get_pc_thunk.dx
                0x0000000000000000        0x4 binaries/i386-stub.o
 .text.__x86.get_pc_thunk.bx
                0x0000000000000000        0x4 binaries/i386-stub.o
 .group         0x0000000000000000        0x8 binaries/init.o
 .text.__x86.get_pc_thunk.bx
                0x0000000000000000        0x4 binaries/init.o
 .group         0x0000000000000000        0x8 binaries/initialize.o
 .text.__x86.get_pc_thunk.bx
                0x0000000000000000        0x4 binaries/initialize.o
 .group         0x0000000000000000        0x8 binaries/insert.o
 .group         0x0000000000000000        0x8 binaries/insertd.o
 .text.__x86.get_pc_thunk.di
                0x0000000000000000        0x4 binaries/insertd.o
 .group         0x0000000000000000        0x8 binaries/kill.o
 .text.__x86.get_pc_thunk.bx
                0x0000000000000000        0x4 binaries/kill.o
 .group         0x0000000000000000        0x8 binaries/kprintf.o
 .group         0x0000000000000000        0x8 binaries/kprintf.o
 .text.__x86.get_pc_thunk.ax
                0x0000000000000000        0x4 binaries/kprintf.o
 .text.__x86.get_pc_thunk.bx
                0x0000000000000000        0x4 binaries/kprintf.o
 .group         0x0000000000000000        0x8 binaries/main.o
 .text.__x86.get_pc_thunk.bx
                0x0000000000000000        0x4 binaries/main.o
 .group         0x0000000000000000        0x8 binaries/mark.o
 .text.__x86.get_pc_thunk.bx
                0x0000000000000000        0x4 binaries/mark.o
 .group         0x0000000000000000        0x8 binaries/meminit.o
 .text.__x86.get_pc_thunk.bx
                0x0000000000000000        0x4 binaries/meminit.o
 .group         0x0000000000000000        0x8 binaries/mkbufpool.o
 .text.__x86.get_pc_thunk.bx
                0x0000000000000000        0x4 binaries/mkbufpool.o
 .group         0x0000000000000000        0x8 binaries/newqueue.o
 .text.__x86.get_pc_thunk.cx
                0x0000000000000000        0x4 binaries/newqueue.o
 .group         0x0000000000000000        0x8 binaries/open.o
 .text.__x86.get_pc_thunk.bx
                0x0000000000000000        0x4 binaries/open.o
 .group         0x0000000000000000        0x8 binaries/panic.o
 .text.__x86.get_pc_thunk.bx
                0x0000000000000000        0x4 binaries/panic.o
 .group         0x0000000000000000        0x8 binaries/platinit.o
 .text.__x86.get_pc_thunk.bx
                0x0000000000000000        0x4 binaries/platinit.o
 .group         0x0000000000000000        0x8 binaries/ptclear.o
 .text.__x86.get_pc_thunk.bx
                0x0000000000000000        0x4 binaries/ptclear.o
 .group         0x0000000000000000        0x8 binaries/ptcount.o
 .text.__x86.get_pc_thunk.bx
                0x0000000000000000        0x4 binaries/ptcount.o
 .group         0x0000000000000000        0x8 binaries/ptcreate.o
 .text.__x86.get_pc_thunk.bx
                0x0000000000000000        0x4 binaries/ptcreate.o
 .group         0x0000000000000000        0x8 binaries/ptdelete.o
 .text.__x86.get_pc_thunk.bx
                0x0000000000000000        0x4 binaries/ptdelete.o
 .group         0x0000000000000000        0x8 binaries/ptinit.o
 .text.__x86.get_pc_thunk.bx
                0x0000000000000000        0x4 binaries/ptinit.o
 .group         0x0000000000000000        0x8 binaries/ptrecv.o
 .text.__x86.get_pc_thunk.bx
                0x0000000000000000        0x4 binaries/ptrecv.o
 .group         0x0000000000000000        0x8 binaries/ptreset.o
 .text.__x86.get_pc_thunk.bx
                0x0000000000000000        0x4 binaries/ptreset.o
 .group         0x0000000000000000        0x8 binaries/ptsend.o
 .text.__x86.get_pc_thunk.bx
                0x0000000000000000        0x4 binaries/ptsend.o
 .group         0x0000000000000000        0x8 binaries/putc.o
 .text.__x86.get_pc_thunk.bx
                0x0000000000000000        0x4 binaries/putc.o
 .group         0x0000000000000000        0x8 binaries/quark_irq.o
 .text.__x86.get_pc_thunk.bx
                0x0000000000000000        0x4 binaries/quark_irq.o
 .group         0x0000000000000000        0x8 binaries/quark_pdat.o
 .text.__x86.get_pc_thunk.bx
                0x0000000000000000        0x4 binaries/quark_pdat.o
 .group         0x0000000000000000        0x8 binaries/queue.o
 .text.__x86.get_pc_thunk.bx
                0x0000000000000000        0x4 binaries/queue.o
 .group         0x0000000000000000        0x8 binaries/read.o
 .text.__x86.get_pc_thunk.bx
                0x0000000000000000        0x4 binaries/read.o
 .group         0x0000000000000000        0x8 binaries/ready.o
 .text.__x86.get_pc_thunk.bx
                0x0000000000000000        0x4 binaries/ready.o
 .group         0x0000000000000000        0x8 binaries/receive.o
 .text.__x86.get_pc_thunk.bx
                0x0000000000000000        0x4 binaries/receive.o
 .group         0x0000000000000000        0x8 binaries/receiveq.o
 .text.__x86.get_pc_thunk.bx
                0x0000000000000000        0x4 binaries/receiveq.o
 .group         0x0000000000000000        0x8 binaries/recvclr.o
 .text.__x86.get_pc_thunk.bx
                0x0000000000000000        0x4 binaries/recvclr.o
 .group         0x0000000000000000        0x8 binaries/recvtime.o
 .text.__x86.get_pc_thunk.bx
                0x0000000000000000        0x4 binaries/recvtime.o
 .group         0x0000000000000000        0x8 binaries/resched.o
 .group         0x0000000000000000        0x8 binaries/resched.o
 .text.__x86.get_pc_thunk.dx
                0x0000000000000000        0x4 binaries/resched.o
 .text.__x86.get_pc_thunk.bx
                0x0000000000000000        0x4 binaries/resched.o
 .group         0x0000000000000000        0x8 binaries/resume.o
 .text.__x86.get_pc_thunk.bx
                0x0000000000000000        0x4 binaries/resume.o
 .group         0x0000000000000000        0x8 binaries/seek.o
 .text.__x86.get_pc_thunk.bx
                0x0000000000000000        0x4 binaries/seek.o
 .group         0x0000000000000000        0x8 binaries/semcount.o
 .text.__x86.get_pc_thunk.bx
                0x0000000000000000        0x4 binaries/semcount.o
 .group         0x0000000000000000        0x8 binaries/semcreate.o
 .text.__x86.get_pc_thunk.bx
                0x0000000000000000        0x4 binaries/semcreate.o
 .group         0x0000000000000000        0x8 binaries/semdelete.o
 .text.__x86.get_pc_thunk.bx
                0x0000000000000000        0x4 binaries/semdelete.o
 .group         0x0000000000000000        0x8 binaries/semreset.o
 .text.__x86.get_pc_thunk.bx
                0x0000000000000000        0x4 binaries/semreset.o
 .group         0x0000000000000000        0x8 binaries/sendblk.o
 .text.__x86.get_pc_thunk.bx
                0x0000000000000000        0x4 binaries/sendblk.o
 .group         0x0000000000000000        0x8 binaries/send.o
 .text.__x86.get_pc_thunk.bx
                0x0000000000000000        0x4 binaries/send.o
 .group         0x0000000000000000        0x8 binaries/sendq.o
 .text.__x86.get_pc_thunk.bx
                0x0000000000000000        0x4 binaries/sendq.o
 .group         0x0000000000000000        0x8 binaries/signal.o
 .text.__x86.get_pc_thunk.bx
                0x0000000000000000        0x4 binaries/signal.o
 .group         0x0000000000000000        0x8 binaries/signaln.o
 .text.__x86.get_pc_thunk.bx
                0x0000000000000000        0x4 binaries/signaln.o
 .group         0x0000000000000000        0x8 binaries/sleep.o
 .text.__x86.get_pc_thunk.bx
                0x0000000000000000        0x4 binaries/sleep.o
 .group         0x0000000000000000        0x8 binaries/suspend.o
 .text.__x86.get_pc_thunk.bx
                0x0000000000000000        0x4 binaries/suspend.o
 .group         0x0000000000000000        0x8 binaries/unsleep.o
 .text.__x86.get_pc_thunk.bx
                0x0000000000000000        0x4 binaries/unsleep.o
 .group         0x0000000000000000        0x8 binaries/userret.o
 .text.__x86.get_pc_thunk.bx
                0x0000000000000000        0x4 binaries/userret.o
 .group         0x0000000000000000        0x8 binaries/wait.o
 .text.__x86.get_pc_thunk.bx
                0x0000000000000000        0x4 binaries/wait.o
 .group         0x0000000000000000        0x8 binaries/wakeup.o
 .text.__x86.get_pc_thunk.bx
                0x0000000000000000        0x4 binaries/wakeup.o
 .group         0x0000000000000000        0x8 binaries/write.o
 .text.__x86.get_pc_thunk.bx
                0x0000000000000000        0x4 binaries/write.o
 .group         0x0000000000000000        0x8 binaries/xdone.o
 .text.__x86.get_pc_thunk.bx
                0x0000000000000000        0x4 binaries/xdone.o
 .group         0x0000000000000000        0x8 binaries/yield.o
 .text.__x86.get_pc_thunk.bx
                0x0000000000000000        0x4 binaries/yield.o
 .group         0x0000000000000000        0x8 binaries/doprnt.o
 .group         0x0000000000000000        0x8 binaries/doprnt.o
 .text.__x86.get_pc_thunk.ax
                0x0000000000000000        0x4 binaries/doprnt.o
 .text.__x86.get_pc_thunk.si
                0x0000000000000000        0x4 binaries/doprnt.o
 .group         0x0000000000000000        0x8 binaries/doscan.o
 .text.__x86.get_pc_thunk.di
                0x0000000000000000        0x4 binaries/doscan.o
 .group         0x0000000000000000        0x8 binaries/fdoprnt.o
 .text.__x86.get_pc_thunk.ax
                0x0000000000000000        0x4 binaries/fdoprnt.o
 .group         0x0000000000000000        0x8 binaries/fgetc.o
 .text.__x86.get_pc_thunk.bx
                0x0000000000000000        0x4 binaries/fgetc.o
 .group         0x0000000000000000        0x8 binaries/fgets.o
 .text.__x86.get_pc_thunk.bx
                0x0000000000000000        0x4 binaries/fgets.o
 .group         0x0000000000000000        0x8 binaries/fprintf.o
 .text.__x86.get_pc_thunk.bx
                0x0000000000000000        0x4 binaries/fprintf.o
 .group         0x0000000000000000        0x8 binaries/fputc.o
 .text.__x86.get_pc_thunk.bx
                0x0000000000000000        0x4 binaries/fputc.o
 .group         0x0000000000000000        0x8 binaries/fputs.o
 .text.__x86.get_pc_thunk.bx
                0x0000000000000000        0x4 binaries/fputs.o
 .group         0x0000000000000000        0x8 binaries/fscanf.o
 .text.__x86.get_pc_thunk.bx
                0x0000000000000000        0x4 binaries/fscanf.o
 .group         0x0000000000000000        0x8 binaries/getchar.o
 .text.__x86.get_pc_thunk.bx
                0x0000000000000000        0x4 binaries/getchar.o
 .group         0x0000000000000000        0x8 binaries/printf.o
 .text.__x86.get_pc_thunk.bx
                0x0000000000000000        0x4 binaries/printf.o
 .group         0x0000000000000000        0x8 binaries/putchar.o
 .text.__x86.get_pc_thunk.bx
                0x0000000000000000        0x4 binaries/putchar.o
 .group         0x0000000000000000        0x8 binaries/qsort.o
 .group         0x0000000000000000        0x8 binaries/qsort.o
 .group         0x0000000000000000        0x8 binaries/qsort.o
 .text.__x86.get_pc_thunk.cx
                0x0000000000000000        0x4 binaries/qsort.o
 .text.__x86.get_pc_thunk.bx
                0x0000000000000000        0x4 binaries/qsort.o
 .text.__x86.get_pc_thunk.bp
                0x0000000000000000        0x4 binaries/qsort.o
 .group         0x0000000000000000        0x8 binaries/rand.o
 .group         0x0000000000000000        0x8 binaries/rand.o
 .text.__x86.get_pc_thunk.ax
                0x0000000000000000        0x4 binaries/rand.o
 .text.__x86.get_pc_thunk.dx
                0x0000000000000000        0x4 binaries/rand.o
 .group         0x0000000000000000        0x8 binaries/sprintf.o
 .text.__x86.get_pc_thunk.bx
                0x0000000000000000        0x4 binaries/sprintf.o
 .group         0x0000000000000000        0x8 binaries/sscanf.o
 .text.__x86.get_pc_thunk.bx
                0x0000000000000000        0x4 binaries/sscanf.o
 .group         0x0000000000000000        0x8 binaries/ttycontrol.o
 .text.__x86.get_pc_thunk.bx
                0x0000000000000000        0x4 binaries/ttycontrol.o
 .group         0x0000000000000000        0x8 binaries/ttygetc.o
 .text.__x86.get_pc_thunk.bx
                0x0000000000000000        0x4 binaries/ttygetc.o
 .group         0x0000000000000000        0x8 binaries/ttyhandle_in.o
 .text.__x86.get_pc_thunk.bx
                0x0000000000000000        0x4 binaries/ttyhandle_in.o
 .group         0x0000000000000000        0x8 binaries/ttyhandle_out.o
 .text.__x86.get_pc_thunk.ax
                0x0000000000000000        0x4 binaries/ttyhandle_out.o
 .group         0x0000000000000000        0x8 binaries/ttyhandler.o
 .text.__x86.get_pc_thunk.bx
                0x0000000000000000        0x4 binaries/ttyhandler.o
 .group         0x0000000000000000        0x8 binaries/ttyinit.o
 .text.__x86.get_pc_thunk.bx
                0x0000000000000000        0x4 binaries/ttyinit.o
 .group         0x0000000000000000        0x8 binaries/ttyputc.o
 .text.__x86.get_pc_thunk.bx
                0x0000000000000000        0x4 binaries/ttyputc.o
 .group         0x0000000000000000        0x8 binaries/ttyread.o
 .text.__x86.get_pc_thunk.bx
                0x0000000000000000        0x4 binaries/ttyread.o
 .group         0x0000000000000000        0x8 binaries/ttywrite.o
 .text.__x86.get_pc_thunk.bx
                0x0000000000000000        0x4 binaries/ttywrite.o
 .group         0x0000000000000000        0x8 binaries/mount.o
 .text.__x86.get_pc_thunk.bx
                0x0000000000000000        0x4 binaries/mount.o
 .group         0x0000000000000000        0x8 binaries/naminit.o
 .text.__x86.get_pc_thunk.si
                0x0000000000000000        0x4 binaries/naminit.o
 .group         0x0000000000000000        0x8 binaries/nammap.o
 .group         0x0000000000000000        0x8 binaries/nammap.o
 .text.__x86.get_pc_thunk.bx
                0x0000000000000000        0x4 binaries/nammap.o
 .text.__x86.get_pc_thunk.si
                0x0000000000000000        0x4 binaries/nammap.o
 .group         0x0000000000000000        0x8 binaries/namopen.o
 .text.__x86.get_pc_thunk.bx
                0x0000000000000000        0x4 binaries/namopen.o
 .group         0x0000000000000000        0x8 binaries/colon2mac.o
 .text.__x86.get_pc_thunk.dx
                0x0000000000000000        0x4 binaries/colon2mac.o
 .group         0x0000000000000000        0x8 binaries/ethcontrol.o
 .text.__x86.get_pc_thunk.bx
                0x0000000000000000        0x4 binaries/ethcontrol.o
 .group         0x0000000000000000        0x8 binaries/ethhandler.o
 .text.__x86.get_pc_thunk.bx
                0x0000000000000000        0x4 binaries/ethhandler.o
 .group         0x0000000000000000        0x8 binaries/ethinit.o
 .text.__x86.get_pc_thunk.bx
                0x0000000000000000        0x4 binaries/ethinit.o
 .group         0x0000000000000000        0x8 binaries/ethmcast.o
 .text.__x86.get_pc_thunk.bx
                0x0000000000000000        0x4 binaries/ethmcast.o
 .group         0x0000000000000000        0x8 binaries/ethread.o
 .text.__x86.get_pc_thunk.bx
                0x0000000000000000        0x4 binaries/ethread.o
 .group         0x0000000000000000        0x8 binaries/ethwrite.o
 .text.__x86.get_pc_thunk.bx
                0x0000000000000000        0x4 binaries/ethwrite.o
 .group         0x0000000000000000        0x8 binaries/rdsbufalloc.o
 .text.__x86.get_pc_thunk.bx
                0x0000000000000000        0x4 binaries/rdsbufalloc.o
 .group         0x0000000000000000        0x8 binaries/rdsclose.o
 .text.__x86.get_pc_thunk.di
                0x0000000000000000        0x4 binaries/rdsclose.o
 .group         0x0000000000000000        0x8 binaries/rdscomm.o
 .text.__x86.get_pc_thunk.bx
                0x0000000000000000        0x4 binaries/rdscomm.o
 .group         0x0000000000000000        0x8 binaries/rdscontrol.o
 .text.__x86.get_pc_thunk.bx
                0x0000000000000000        0x4 binaries/rdscontrol.o
 .group         0x0000000000000000        0x8 binaries/rdsinit.o
 .text.__x86.get_pc_thunk.bx
                0x0000000000000000        0x4 binaries/rdsinit.o
 .group         0x0000000000000000        0x8 binaries/rdsopen.o
 .text.__x86.get_pc_thunk.bx
                0x0000000000000000        0x4 binaries/rdsopen.o
 .group         0x0000000000000000        0x8 binaries/rdsprocess.o
 .text.__x86.get_pc_thunk.bx
                0x0000000000000000        0x4 binaries/rdsprocess.o
 .group         0x0000000000000000        0x8 binaries/rdsread.o
 .text.__x86.get_pc_thunk.bx
                0x0000000000000000        0x4 binaries/rdsread.o
 .group         0x0000000000000000        0x8 binaries/rdswrite.o
 .text.__x86.get_pc_thunk.bx
                0x0000000000000000        0x4 binaries/rdswrite.o
 .group         0x0000000000000000        0x8 binaries/raminit.o
 .text.__x86.get_pc_thunk.bx
                0x0000000000000000        0x4 binaries/raminit.o
 .group         0x0000000000000000        0x8 binaries/ramread.o
 .text.__x86.get_pc_thunk.bx
                0x0000000000000000        0x4 binaries/ramread.o
 .group         0x0000000000000000        0x8 binaries/ramwrite.o
 .text.__x86.get_pc_thunk.bx
                0x0000000000000000        0x4 binaries/ramwrite.o
 .group         0x0000000000000000        0x8 binaries/lfdballoc.o
 .text.__x86.get_pc_thunk.bx
                0x0000000000000000        0x4 binaries/lfdballoc.o
 .group         0x0000000000000000        0x8 binaries/lfdbfree.o
 .text.__x86.get_pc_thunk.bx
                0x0000000000000000        0x4 binaries/lfdbfree.o
 .group         0x0000000000000000        0x8 binaries/lfflush.o
 .text.__x86.get_pc_thunk.bx
                0x0000000000000000        0x4 binaries/lfflush.o
 .group         0x0000000000000000        0x8 binaries/lfiballoc.o
 .text.__x86.get_pc_thunk.bx
                0x0000000000000000        0x4 binaries/lfiballoc.o
 .group         0x0000000000000000        0x8 binaries/lfibget.o
 .text.__x86.get_pc_thunk.bx
                0x0000000000000000        0x4 binaries/lfibget.o
 .group         0x0000000000000000        0x8 binaries/lfibput.o
 .text.__x86.get_pc_thunk.bx
                0x0000000000000000        0x4 binaries/lfibput.o
 .group         0x0000000000000000        0x8 binaries/lflclose.o
 .text.__x86.get_pc_thunk.bx
                0x0000000000000000        0x4 binaries/lflclose.o
 .group         0x0000000000000000        0x8 binaries/lflcontrol.o
 .text.__x86.get_pc_thunk.bx
                0x0000000000000000        0x4 binaries/lflcontrol.o
 .group         0x0000000000000000        0x8 binaries/lflgetc.o
 .text.__x86.get_pc_thunk.bx
                0x0000000000000000        0x4 binaries/lflgetc.o
 .group         0x0000000000000000        0x8 binaries/lflinit.o
 .text.__x86.get_pc_thunk.bx
                0x0000000000000000        0x4 binaries/lflinit.o
 .group         0x0000000000000000        0x8 binaries/lflputc.o
 .text.__x86.get_pc_thunk.bx
                0x0000000000000000        0x4 binaries/lflputc.o
 .group         0x0000000000000000        0x8 binaries/lflread.o
 .text.__x86.get_pc_thunk.bx
                0x0000000000000000        0x4 binaries/lflread.o
 .group         0x0000000000000000        0x8 binaries/lflseek.o
 .text.__x86.get_pc_thunk.bx
                0x0000000000000000        0x4 binaries/lflseek.o
 .group         0x0000000000000000        0x8 binaries/lflwrite.o
 .text.__x86.get_pc_thunk.bx
                0x0000000000000000        0x4 binaries/lflwrite.o
 .group         0x0000000000000000        0x8 binaries/lfsckfmt.o
 .text.__x86.get_pc_thunk.bx
                0x0000000000000000        0x4 binaries/lfsckfmt.o
 .group         0x0000000000000000        0x8 binaries/lfscreate.o
 .text.__x86.get_pc_thunk.bx
                0x0000000000000000        0x4 binaries/lfscreate.o
 .group         0x0000000000000000        0x8 binaries/lfsetup.o
 .text.__x86.get_pc_thunk.bx
                0x0000000000000000        0x4 binaries/lfsetup.o
 .group         0x0000000000000000        0x8 binaries/lfsinit.o
 .text.__x86.get_pc_thunk.bx
                0x0000000000000000        0x4 binaries/lfsinit.o
 .group         0x0000000000000000        0x8 binaries/lfsopen.o
 .text.__x86.get_pc_thunk.bp
                0x0000000000000000        0x4 binaries/lfsopen.o
 .group         0x0000000000000000        0x8 binaries/lftruncate.o
 .text.__x86.get_pc_thunk.bx
                0x0000000000000000        0x4 binaries/lftruncate.o
 .group         0x0000000000000000        0x8 binaries/rflclose.o
 .text.__x86.get_pc_thunk.bx
                0x0000000000000000        0x4 binaries/rflclose.o
 .group         0x0000000000000000        0x8 binaries/rflgetc.o
 .text.__x86.get_pc_thunk.bx
                0x0000000000000000        0x4 binaries/rflgetc.o
 .group         0x0000000000000000        0x8 binaries/rflinit.o
 .text.__x86.get_pc_thunk.bx
                0x0000000000000000        0x4 binaries/rflinit.o
 .group         0x0000000000000000        0x8 binaries/rflputc.o
 .text.__x86.get_pc_thunk.bx
                0x0000000000000000        0x4 binaries/rflputc.o
 .group         0x0000000000000000        0x8 binaries/rflread.o
 .text.__x86.get_pc_thunk.bx
                0x0000000000000000        0x4 binaries/rflread.o
 .group         0x0000000000000000        0x8 binaries/rflseek.o
 .text.__x86.get_pc_thunk.bx
                0x0000000000000000        0x4 binaries/rflseek.o
 .group         0x0000000000000000        0x8 binaries/rflwrite.o
 .text.__x86.get_pc_thunk.bx
                0x0000000000000000        0x4 binaries/rflwrite.o
 .group         0x0000000000000000        0x8 binaries/rfscomm.o
 .text.__x86.get_pc_thunk.bx
                0x0000000000000000        0x4 binaries/rfscomm.o
 .group         0x0000000000000000        0x8 binaries/rfscontrol.o
 .text.__x86.get_pc_thunk.bx
                0x0000000000000000        0x4 binaries/rfscontrol.o
 .group         0x0000000000000000        0x8 binaries/rfsinit.o
 .text.__x86.get_pc_thunk.bx
                0x0000000000000000        0x4 binaries/rfsinit.o
 .group         0x0000000000000000        0x8 binaries/rfsndmsg.o
 .text.__x86.get_pc_thunk.bx
                0x0000000000000000        0x4 binaries/rfsndmsg.o
 .group         0x0000000000000000        0x8 binaries/rfsopen.o
 .text.__x86.get_pc_thunk.bx
                0x0000000000000000        0x4 binaries/rfsopen.o
 .group         0x0000000000000000        0x8 binaries/arp.o
 .group         0x0000000000000000        0x8 binaries/arp.o
 .text.__x86.get_pc_thunk.ax
                0x0000000000000000        0x4 binaries/arp.o
 .text.__x86.get_pc_thunk.bx
                0x0000000000000000        0x4 binaries/arp.o
 .group         0x0000000000000000        0x8 binaries/dhcp.o
 .text.__x86.get_pc_thunk.bx
                0x0000000000000000        0x4 binaries/dhcp.o
 .group         0x0000000000000000        0x8 binaries/hexdump.o
 .text.__x86.get_pc_thunk.bx
                0x0000000000000000        0x4 binaries/hexdump.o
 .group         0x0000000000000000        0x8 binaries/icmp.o
 .group         0x0000000000000000        0x8 binaries/icmp.o
 .text.__x86.get_pc_thunk.ax
                0x0000000000000000        0x4 binaries/icmp.o
 .text.__x86.get_pc_thunk.bx
                0x0000000000000000        0x4 binaries/icmp.o
 .group         0x0000000000000000        0x8 binaries/ip.o
 .text.__x86.get_pc_thunk.bx
                0x0000000000000000        0x4 binaries/ip.o
 .group         0x0000000000000000        0x8 binaries/net.o
 .text.__x86.get_pc_thunk.bx
                0x0000000000000000        0x4 binaries/net.o
 .group         0x0000000000000000        0x8 binaries/netstart.o
 .text.__x86.get_pc_thunk.bx
                0x0000000000000000        0x4 binaries/netstart.o
 .group         0x0000000000000000        0x8 binaries/pdump.o
 .text.__x86.get_pc_thunk.bx
                0x0000000000000000        0x4 binaries/pdump.o
 .group         0x0000000000000000        0x8 binaries/tftp.o
 .text.__x86.get_pc_thunk.bx
                0x0000000000000000        0x4 binaries/tftp.o
 .group         0x0000000000000000        0x8 binaries/udp.o
 .group         0x0000000000000000        0x8 binaries/udp.o
 .text.__x86.get_pc_thunk.ax
                0x0000000000000000        0x4 binaries/udp.o
 .text.__x86.get_pc_thunk.bx
                0x0000000000000000        0x4 binaries/udp.o
 .group         0x0000000000000000        0x8 binaries/addargs.o
 .text.__x86.get_pc_thunk.bx
                0x0000000000000000        0x4 binaries/addargs.o
 .group         0x0000000000000000        0x8 binaries/shell.o
 .text.__x86.get_pc_thunk.bx
                0x0000000000000000        0x4 binaries/shell.o
 .group         0x0000000000000000        0x8 binaries/xsh_argecho.o
 .text.__x86.get_pc_thunk.bx
                0x0000000000000000        0x4 binaries/xsh_argecho.o
 .group         0x0000000000000000        0x8 binaries/xsh_arp.o
 .text.__x86.get_pc_thunk.bx
                0x0000000000000000        0x4 binaries/xsh_arp.o
 .group         0x0000000000000000        0x8 binaries/xsh_cat.o
 .text.__x86.get_pc_thunk.bx
                0x0000000000000000        0x4 binaries/xsh_cat.o
 .group         0x0000000000000000        0x8 binaries/xsh_clear.o
 .text.__x86.get_pc_thunk.bx
                0x0000000000000000        0x4 binaries/xsh_clear.o
 .group         0x0000000000000000        0x8 binaries/xsh_date.o
 .text.__x86.get_pc_thunk.bx
                0x0000000000000000        0x4 binaries/xsh_date.o
 .group         0x0000000000000000        0x8 binaries/xsh_devdump.o
 .text.__x86.get_pc_thunk.bx
                0x0000000000000000        0x4 binaries/xsh_devdump.o
 .group         0x0000000000000000        0x8 binaries/xsh_echo.o
 .text.__x86.get_pc_thunk.bx
                0x0000000000000000        0x4 binaries/xsh_echo.o
 .group         0x0000000000000000        0x8 binaries/xsh_help.o
 .text.__x86.get_pc_thunk.bx
                0x0000000000000000        0x4 binaries/xsh_help.o
 .group         0x0000000000000000        0x8 binaries/xsh_ipaddr.o
 .text.__x86.get_pc_thunk.bx
                0x0000000000000000        0x4 binaries/xsh_ipaddr.o
 .group         0x0000000000000000        0x8 binaries/xsh_kill.o
 .text.__x86.get_pc_thunk.bx
                0x0000000000000000        0x4 binaries/xsh_kill.o
 .group         0x0000000000000000        0x8 binaries/xsh_memdump.o
 .text.__x86.get_pc_thunk.bx
                0x0000000000000000        0x4 binaries/xsh_memdump.o
 .group         0x0000000000000000        0x8 binaries/xsh_memstat.o
 .text.__x86.get_pc_thunk.bx
                0x0000000000000000        0x4 binaries/xsh_memstat.o
 .group         0x0000000000000000        0x8 binaries/xsh_ping.o
 .text.__x86.get_pc_thunk.bx
                0x0000000000000000        0x4 binaries/xsh_ping.o
 .group         0x0000000000000000        0x8 binaries/xsh_ps.o
 .text.__x86.get_pc_thunk.bx
                0x0000000000000000        0x4 binaries/xsh_ps.o
 .group         0x0000000000000000        0x8 binaries/xsh_sleep.o
 .text.__x86.get_pc_thunk.bx
                0x0000000000000000        0x4 binaries/xsh_sleep.o
 .group         0x0000000000000000        0x8 binaries/xsh_udpdump.o
 .text.__x86.get_pc_thunk.bx
                0x0000000000000000        0x4 binaries/xsh_udpdump.o
 .group         0x0000000000000000        0x8 binaries/xsh_udpecho.o
 .text.__x86.get_pc_thunk.bx
                0x0000000000000000        0x4 binaries/xsh_udpecho.o
 .group         0x0000000000000000        0x8 binaries/xsh_udpeserver.o
 .text.__x86.get_pc_thunk.bx
                0x0000000000000000        0x4 binaries/xsh_udpeserver.o
 .group         0x0000000000000000        0x8 binaries/xsh_uptime.o
 .text.__x86.get_pc_thunk.bx
                0x0000000000000000        0x4 binaries/xsh_uptime.o

Memory Configuration

Name             Origin             Length             Attributes
*default*        0x0000000000000000 0xffffffffffffffff

Linker script and memory map

                0x0000000000100000                physbase = 0x100000
                0x0000000000100000                . = physbase
                0x0000000000100000                . = ALIGN (0x1000)

.text           0x0000000000100000    0x18000
                0x0000000000100000                text = ABSOLUTE (.)
 *(.text .text.*)
 .text          0x0000000000100000      0x1a8 binaries/start.o
                0x0000000000100024                start
                0x00000000001000f6                inb
                0x00000000001000fe                inw
                0x0000000000100107                inl
                0x000000000010010f                outb
                0x0000000000100119                outw
                0x0000000000100124                outl
                0x000000000010012e                _rtcin
                0x0000000000100139                ___udivsi3
                0x0000000000100144                ___divsi3
                0x0000000000100150                sbzero
                0x0000000000100160                bcopy
                0x0000000000100174                insw
                0x000000000010018a                outsw
                0x00000000001001a0                lidt
 .text          0x00000000001001a8      0x2e5 binaries/ascdate.o
                0x00000000001001a8                ascdate
 .text.__x86.get_pc_thunk.bx
                0x000000000010048d        0x4 binaries/ascdate.o
                0x000000000010048d                __x86.get_pc_thunk.bx
 .text          0x0000000000100491       0x1c binaries/bufinit.o
                0x0000000000100491                bufinit
 .text.__x86.get_pc_thunk.ax
                0x00000000001004ad        0x4 binaries/bufinit.o
                0x00000000001004ad                __x86.get_pc_thunk.ax
 .text          0x00000000001004b1       0x95 binaries/cbreg.o
                0x00000000001004b1                cbreg
 .text          0x0000000000100546       0x81 binaries/chprio.o
                0x0000000000100546                chprio
 .text          0x00000000001005c7       0x8f binaries/clkhandler.o
                0x00000000001005c7                clkhandler
 .text          0x0000000000100656       0x6e binaries/clkinit.o
                0x0000000000100656                clkinit
 .text          0x00000000001006c4       0x5c binaries/close.o
                0x00000000001006c4                close
 .text          0x0000000000100720        0x0 binaries/conf.o
 .text          0x0000000000100720       0x65 binaries/control.o
                0x0000000000100720                control
 .text          0x0000000000100785      0x23d binaries/create.o
                0x0000000000100785                create
 .text          0x00000000001009c2      0x23b binaries/early_imr.o
                0x00000000001009c2                intel_cln_early_sb_read_reg
                0x0000000000100a29                intel_cln_early_sb_write_reg
                0x0000000000100ae8                remove_irm_protections
 .text          0x0000000000100bfd      0x36d binaries/evec.o
                0x0000000000100bfd                setirmask
                0x0000000000100c4e                set_evec
                0x0000000000100cc2                initevec
                0x0000000000100da3                trap
 .text          0x0000000000100f6a       0x91 binaries/freebuf.o
                0x0000000000100f6a                freebuf
 .text          0x0000000000100ffb      0x123 binaries/freemem.o
                0x0000000000100ffb                freemem
 .text          0x000000000010111e       0x75 binaries/getbuf.o
                0x000000000010111e                getbuf
 .text          0x0000000000101193       0x5c binaries/getc.o
                0x0000000000101193                getc
 .text          0x00000000001011ef       0x79 binaries/getdev.o
                0x00000000001011ef                getdev
 .text          0x0000000000101268       0x96 binaries/getitem.o
                0x0000000000101268                getitem
                0x000000000010129b                getfirst
                0x00000000001012cb                getlast
 .text.__x86.get_pc_thunk.dx
                0x00000000001012fe        0x4 binaries/getitem.o
                0x00000000001012fe                __x86.get_pc_thunk.dx
 .text          0x0000000000101302       0xce binaries/getmem.o
                0x0000000000101302                getmem
 .text          0x00000000001013d0       0x13 binaries/getpid.o
                0x00000000001013d0                getpid
 .text          0x00000000001013e3       0x6e binaries/getprio.o
                0x00000000001013e3                getprio
 .text          0x0000000000101451       0xc0 binaries/getstk.o
                0x0000000000101451                getstk
 .text          0x0000000000101511       0x41 binaries/gettime.o
                0x0000000000101511                gettime
 .text          0x0000000000101552      0x1d5 binaries/getutime.o
                0x0000000000101552                getutime
 .text          0x0000000000101727     0x14de binaries/i386-stub.o
                0x0000000000101727                return_to_prog
                0x00000000001017a4                _catchException3
                0x0000000000101835                _catchException1
                0x00000000001018c6                _catchException0
                0x0000000000101957                _catchException4
                0x00000000001019e8                _catchException5
                0x0000000000101a79                _catchException6
                0x0000000000101b0a                _catchException7
                0x0000000000101b9b                _catchException8
                0x0000000000101c33                _catchException9
                0x0000000000101cc4                _catchException10
                0x0000000000101d5c                _catchException12
                0x0000000000101df4                _catchException16
                0x0000000000101e85                _catchException13
                0x0000000000101f2a                _catchException11
                0x0000000000101fcf                _catchException14
                0x0000000000102082                set_mem_err
                0x0000000000102097                putDebugChar
                0x00000000001020b8                getDebugChar
                0x00000000001020e7                exceptionHandler
                0x0000000000102108                _returnFromException
                0x0000000000102121                hex
                0x0000000000102158                send_gdb_header
                0x000000000010216a                getpacket
                0x00000000001022c8                putpacket
                0x0000000000102369                debug_error
                0x000000000010239d                get_char
                0x00000000001023a5                set_char
                0x00000000001023b0                mem2hex
                0x0000000000102457                hex2mem
                0x0000000000102504                computeSignal
                0x000000000010256f                hexToInt
                0x00000000001025c2                handle_exception
                0x0000000000102ad6                set_debug_traps
                0x0000000000102bf0                breakpoint
 .text.__x86.get_pc_thunk.cx
                0x0000000000102c05        0x4 binaries/i386-stub.o
                0x0000000000102c05                __x86.get_pc_thunk.cx
 .text.__x86.get_pc_thunk.si
                0x0000000000102c09        0x4 binaries/i386-stub.o
                0x0000000000102c09                __x86.get_pc_thunk.si
 .text.__x86.get_pc_thunk.bp
                0x0000000000102c0d        0x4 binaries/i386-stub.o
                0x0000000000102c0d                __x86.get_pc_thunk.bp
 .text          0x0000000000102c11       0x5c binaries/init.o
                0x0000000000102c11                init
 .text          0x0000000000102c6d      0x28e binaries/initialize.o
                0x0000000000102c6d                nulluser
                0x0000000000102ea6                stop
                0x0000000000102ed8                delay
 .text          0x0000000000102efb       0x98 binaries/insert.o
                0x0000000000102efb                insert
 .text.__x86.get_pc_thunk.di
                0x0000000000102f93        0x4 binaries/insert.o
                0x0000000000102f93                __x86.get_pc_thunk.di
 .text          0x0000000000102f97       0xf7 binaries/insertd.o
                0x0000000000102f97                insertd
 .text          0x000000000010308e        0x6 binaries/ioerr.o
                0x000000000010308e                ioerr
 .text          0x0000000000103094        0x6 binaries/ionull.o
                0x0000000000103094                ionull
 .text          0x000000000010309a      0x18d binaries/kill.o
                0x000000000010309a                kill
 .text          0x0000000000103227       0xe2 binaries/kprintf.o
                0x0000000000103227                kputc
                0x0000000000103265                console_init
                0x00000000001032a9                kgetc
                0x00000000001032d8                kprintf
 .text          0x0000000000103309      0x58d binaries/main.o
                0x0000000000103309                receiver
                0x0000000000103346                receiver_callback
                0x000000000010337c                receiverq
                0x00000000001033b9                sender
                0x000000000010341b                senderq
                0x000000000010347d                sender_no_blk
                0x00000000001034cb                test_reg_cb
                0x0000000000103504                main
 .text          0x0000000000103896       0xb3 binaries/mark.o
                0x0000000000103896                markinit
                0x00000000001038c5                mark
 .text          0x0000000000103949      0x22c binaries/meminit.o
                0x0000000000103949                meminit
                0x0000000000103aef                setsegs
 .text          0x0000000000103b75      0x14a binaries/mkbufpool.o
                0x0000000000103b75                mkbufpool
 .text          0x0000000000103cbf       0x5e binaries/newqueue.o
                0x0000000000103cbf                newqueue
 .text          0x0000000000103d1d       0x64 binaries/open.o
                0x0000000000103d1d                open
 .text          0x0000000000103d81       0x2c binaries/panic.o
                0x0000000000103d81                panic
 .text          0x0000000000103dad      0x280 binaries/pci.o
                0x0000000000103dad                pci_init
                0x0000000000103db3                find_pci_device
                0x0000000000103e75                pci_read_config_byte
                0x0000000000103eb2                pci_read_config_word
                0x0000000000103ef1                pci_read_config_dword
                0x0000000000103f2e                pci_write_config_byte
                0x0000000000103f69                pci_write_config_word
                0x0000000000103fa5                pci_write_config_dword
                0x0000000000103fe0                pci_get_dev_mmio_base_addr
 .text          0x000000000010402d       0x68 binaries/platinit.o
                0x000000000010402d                platinit
 .text          0x0000000000104095       0xab binaries/ptclear.o
                0x0000000000104095                _ptclear
 .text          0x0000000000104140       0x9f binaries/ptcount.o
                0x0000000000104140                ptcount
 .text          0x00000000001041df       0xf4 binaries/ptcreate.o
                0x00000000001041df                ptcreate
 .text          0x00000000001042d3       0x70 binaries/ptdelete.o
                0x00000000001042d3                ptdelete
 .text          0x0000000000104343       0xa0 binaries/ptinit.o
                0x0000000000104343                ptinit
 .text          0x00000000001043e3      0x123 binaries/ptrecv.o
                0x00000000001043e3                ptrecv
 .text          0x0000000000104506       0x68 binaries/ptreset.o
                0x0000000000104506                ptreset
 .text          0x000000000010456e      0x15c binaries/ptsend.o
                0x000000000010456e                ptsend
 .text          0x00000000001046ca       0x6e binaries/putc.o
                0x00000000001046ca                putc
 .text          0x0000000000104738       0xc3 binaries/quark_irq.o
                0x0000000000104738                quark_irq_routing
 .text          0x00000000001047fb      0x1bb binaries/quark_pdat.o
                0x00000000001047fb                get_quark_pdat_entry_data_by_id
                0x00000000001048d4                get_quark_pdat_entry_data_by_desc
 .text          0x00000000001049b6       0xc6 binaries/queue.o
                0x00000000001049b6                enqueue
                0x0000000000104a21                dequeue
 .text          0x0000000000104a7c       0x64 binaries/read.o
                0x0000000000104a7c                read
 .text          0x0000000000104ae0       0x79 binaries/ready.o
                0x0000000000104ae0                ready
 .text          0x0000000000104b59      0x144 binaries/receive.o
                0x0000000000104b59                receive
 .text          0x0000000000104c9d      0x2ca binaries/receiveq.o
                0x0000000000104c9d                receiveq
 .text          0x0000000000104f67       0x67 binaries/recvclr.o
                0x0000000000104f67                recvclr
 .text          0x0000000000104fce       0xd2 binaries/recvtime.o
                0x0000000000104fce                recvtime
 .text          0x00000000001050a0      0x21b binaries/resched.o
                0x00000000001050a0                resched
                0x000000000010522e                resched_cntl
 .text          0x00000000001052bb       0x95 binaries/resume.o
                0x00000000001052bb                resume
 .text          0x0000000000105350       0x60 binaries/seek.o
                0x0000000000105350                seek
 .text          0x00000000001053b0       0x65 binaries/semcount.o
                0x00000000001053b0                semcount
 .text          0x0000000000105415       0xb5 binaries/semcreate.o
                0x0000000000105415                semcreate
 .text          0x00000000001054ca       0xe0 binaries/semdelete.o
                0x00000000001054ca                semdelete
 .text          0x00000000001055aa       0xc0 binaries/semreset.o
                0x00000000001055aa                semreset
 .text          0x000000000010566a      0x109 binaries/sendblk.o
                0x000000000010566a                sendblk
 .text          0x0000000000105773       0xce binaries/send.o
                0x0000000000105773                send
 .text          0x0000000000105841      0x152 binaries/sendq.o
                0x0000000000105841                sendq
 .text          0x0000000000105993       0xa9 binaries/signal.o
                0x0000000000105993                signal
 .text          0x0000000000105a3c       0xe9 binaries/signaln.o
                0x0000000000105a3c                signaln
 .text          0x0000000000105b25       0xd7 binaries/sleep.o
                0x0000000000105b25                sleepms
                0x0000000000105bc6                sleep
 .text          0x0000000000105bfc       0xce binaries/suspend.o
                0x0000000000105bfc                suspend
 .text          0x0000000000105cca       0x9f binaries/unsleep.o
                0x0000000000105cca                unsleep
 .text          0x0000000000105d69       0x22 binaries/userret.o
                0x0000000000105d69                userret
 .text          0x0000000000105d8b       0xc6 binaries/wait.o
                0x0000000000105d8b                wait
 .text          0x0000000000105e51       0x88 binaries/wakeup.o
                0x0000000000105e51                wakeup
 .text          0x0000000000105ed9       0x64 binaries/write.o
                0x0000000000105ed9                write
 .text          0x0000000000105f3d       0x25 binaries/xdone.o
                0x0000000000105f3d                xdone
 .text          0x0000000000105f62       0x30 binaries/yield.o
                0x0000000000105f62                yield
 .text          0x0000000000105f92        0xe binaries/abs.o
                0x0000000000105f92                abs
 .text          0x0000000000105fa0       0x60 binaries/atoi.o
                0x0000000000105fa0                atoi
 .text          0x0000000000106000       0x60 binaries/atol.o
                0x0000000000106000                atol
 .text          0x0000000000106060       0x18 binaries/bzero.o
                0x0000000000106060                bzero
 .text          0x0000000000106078        0x0 binaries/ctype_.o
 .text          0x0000000000106078      0x83f binaries/doprnt.o
                0x00000000001061ee                _doprnt
 .text          0x00000000001068b7      0x776 binaries/doscan.o
                0x00000000001068b7                _doscan
 .text          0x000000000010702d      0x7a9 binaries/fdoprnt.o
                0x00000000001070b3                _fdoprnt
 .text          0x00000000001077d6       0x2b binaries/fgetc.o
                0x00000000001077d6                fgetc
 .text          0x0000000000107801       0x68 binaries/fgets.o
                0x0000000000107801                fgets
 .text          0x0000000000107869       0x31 binaries/fprintf.o
                0x0000000000107869                fprintf
 .text          0x000000000010789a       0x36 binaries/fputc.o
                0x000000000010789a                fputc
 .text          0x00000000001078d0       0x45 binaries/fputs.o
                0x00000000001078d0                fputs
 .text          0x0000000000107915       0x88 binaries/fscanf.o
                0x000000000010795c                fscanf
 .text          0x000000000010799d       0x35 binaries/getchar.o
                0x000000000010799d                getchar
 .text          0x00000000001079d2        0xe binaries/labs.o
                0x00000000001079d2                labs
 .text          0x00000000001079e0       0x34 binaries/memchr.o
                0x00000000001079e0                memchr
 .text          0x0000000000107a14       0x47 binaries/memcmp.o
                0x0000000000107a14                memcmp
 .text          0x0000000000107a5b       0x25 binaries/memcpy.o
                0x0000000000107a5b                memcpy
 .text          0x0000000000107a80       0x1e binaries/memset.o
                0x0000000000107a80                memset
 .text          0x0000000000107a9e       0x49 binaries/printf.o
                0x0000000000107a9e                printf
 .text          0x0000000000107ae7       0x39 binaries/putchar.o
                0x0000000000107ae7                putchar
 .text          0x0000000000107b20      0x22b binaries/qsort.o
                0x0000000000107d13                qsort
 .text          0x0000000000107d4b       0x3e binaries/rand.o
                0x0000000000107d4b                srand
                0x0000000000107d60                rand
 .text          0x0000000000107d89       0x58 binaries/sprintf.o
                0x0000000000107da0                sprintf
 .text          0x0000000000107de1       0x68 binaries/sscanf.o
                0x0000000000107e0a                sscanf
 .text          0x0000000000107e49       0x2f binaries/strchr.o
                0x0000000000107e49                strchr
 .text          0x0000000000107e78       0x41 binaries/strcmp.o
                0x0000000000107e78                strcmp
 .text          0x0000000000107eb9       0x1a binaries/strcpy.o
                0x0000000000107eb9                strcpy
 .text          0x0000000000107ed3       0x1c binaries/strlen.o
                0x0000000000107ed3                strlen
 .text          0x0000000000107eef       0x3a binaries/strncat.o
                0x0000000000107eef                strncat
 .text          0x0000000000107f29       0x36 binaries/strncmp.o
                0x0000000000107f29                strncmp
 .text          0x0000000000107f5f       0x57 binaries/strncpy.o
                0x0000000000107f5f                strncpy
 .text          0x0000000000107fb6       0x2e binaries/strnlen.o
                0x0000000000107fb6                strnlen
 .text          0x0000000000107fe4       0x34 binaries/strrchr.o
                0x0000000000107fe4                strrchr
 .text          0x0000000000108018       0x75 binaries/strstr.o
                0x0000000000108018                strstr
 .text          0x000000000010808d      0x164 binaries/ttycontrol.o
                0x000000000010808d                ttycontrol
 .text          0x00000000001081f1       0xda binaries/ttygetc.o
                0x00000000001081f1                ttygetc
 .text          0x00000000001082cb      0x4f5 binaries/ttyhandle_in.o
                0x000000000010838b                ttyhandle_in
 .text          0x00000000001087c0      0x181 binaries/ttyhandle_out.o
                0x00000000001087c0                ttyhandle_out
 .text          0x0000000000108941       0x93 binaries/ttyhandler.o
                0x0000000000108941                ttyhandler
 .text          0x00000000001089d4      0x17a binaries/ttyinit.o
                0x00000000001089d4                ttyinit
 .text          0x0000000000108b4e        0xc binaries/ttykickout.o
                0x0000000000108b4e                ttykickout
 .text          0x0000000000108b5a       0xf0 binaries/ttyputc.o
                0x0000000000108b5a                ttyputc
 .text          0x0000000000108c4a      0x143 binaries/ttyread.o
                0x0000000000108c4a                ttyread
 .text          0x0000000000108d8d       0x59 binaries/ttywrite.o
                0x0000000000108d8d                ttywrite
 .text          0x0000000000108de6      0x152 binaries/mount.o
                0x0000000000108de6                namlen
                0x0000000000108e1c                mount
 .text          0x0000000000108f38      0x1f2 binaries/naminit.o
                0x0000000000108f38                naminit
 .text          0x000000000010912a      0x231 binaries/nammap.o
                0x000000000010912a                namrepl
                0x0000000000109267                namcpy
                0x00000000001092b2                nammap
 .text          0x000000000010935b       0x5b binaries/namopen.o
                0x000000000010935b                namopen
 .text          0x00000000001093b6       0xfc binaries/colon2mac.o
                0x00000000001093b6                colon2mac
 .text          0x00000000001094b2       0x8d binaries/ethcontrol.o
                0x00000000001094b2                ethcontrol
 .text          0x000000000010953f      0x1bc binaries/ethhandler.o
                0x000000000010953f                ethhandler
 .text          0x00000000001096fb      0x573 binaries/ethinit.o
                0x00000000001096fb                eth_phy_read
                0x0000000000109736                eth_phy_write
                0x0000000000109774                eth_phy_reset
                0x0000000000109849                ethinit
 .text          0x0000000000109c6e      0x10d binaries/ethmcast.o
                0x0000000000109c6e                ethmcast_add
                0x0000000000109cc2                ethmcast_remove
 .text          0x0000000000109d7b      0x1d8 binaries/ethread.o
                0x0000000000109d7b                ethread
 .text          0x0000000000109f53       0xdf binaries/ethwrite.o
                0x0000000000109f53                ethwrite
 .text          0x000000000010a032       0x73 binaries/rdsbufalloc.o
                0x000000000010a032                rdsbufalloc
 .text          0x000000000010a0a5       0xb7 binaries/rdsclose.o
                0x000000000010a0a5                rdsclose
 .text          0x000000000010a15c      0x22d binaries/rdscomm.o
                0x000000000010a15c                rdscomm
 .text          0x000000000010a389      0x1d8 binaries/rdscontrol.o
                0x000000000010a389                rdscontrol
 .text          0x000000000010a561      0x201 binaries/rdsinit.o
                0x000000000010a561                rdsinit
 .text          0x000000000010a762      0x1a4 binaries/rdsopen.o
                0x000000000010a762                rdsopen
 .text          0x000000000010a906      0x2e5 binaries/rdsprocess.o
                0x000000000010a906                rdsprocess
 .text          0x000000000010abeb      0x209 binaries/rdsread.o
                0x000000000010abeb                rdsread
 .text          0x000000000010adf4      0x1b3 binaries/rdswrite.o
                0x000000000010adf4                rdswrite
 .text          0x000000000010afa7        0x6 binaries/ramclose.o
                0x000000000010afa7                ramclose
 .text          0x000000000010afad       0x42 binaries/raminit.o
                0x000000000010afad                raminit
 .text          0x000000000010afef        0x7 binaries/ramopen.o
                0x000000000010afef                ramopen
 .text          0x000000000010aff6       0x35 binaries/ramread.o
                0x000000000010aff6                ramread
 .text          0x000000000010b02b       0x35 binaries/ramwrite.o
                0x000000000010b02b                ramwrite
 .text          0x000000000010b060       0xa3 binaries/lfdballoc.o
                0x000000000010b060                lfdballoc
 .text          0x000000000010b103       0x5c binaries/lfdbfree.o
                0x000000000010b103                lfdbfree
 .text          0x000000000010b15f       0xb5 binaries/lfflush.o
                0x000000000010b15f                lfflush
 .text          0x000000000010b214       0x74 binaries/lfgetmode.o
                0x000000000010b214                lfgetmode
 .text          0x000000000010b288       0x70 binaries/lfiballoc.o
                0x000000000010b288                lfiballoc
 .text          0x000000000010b2f8       0x25 binaries/lfibclear.o
                0x000000000010b2f8                lfibclear
 .text          0x000000000010b31d       0x8f binaries/lfibget.o
                0x000000000010b31d                lfibget
 .text          0x000000000010b3ac       0xa8 binaries/lfibput.o
                0x000000000010b3ac                lfibput
 .text          0x000000000010b454       0xc1 binaries/lflclose.o
                0x000000000010b454                lflclose
 .text          0x000000000010b515       0xdb binaries/lflcontrol.o
                0x000000000010b515                lflcontrol
 .text          0x000000000010b5f0      0x118 binaries/lflgetc.o
                0x000000000010b5f0                lflgetc
 .text          0x000000000010b708       0xf6 binaries/lflinit.o
                0x000000000010b708                lflinit
 .text          0x000000000010b7fe      0x150 binaries/lflputc.o
                0x000000000010b7fe                lflputc
 .text          0x000000000010b94e       0x77 binaries/lflread.o
                0x000000000010b94e                lflread
 .text          0x000000000010b9c5       0xda binaries/lflseek.o
                0x000000000010b9c5                lflseek
 .text          0x000000000010ba9f       0x65 binaries/lflwrite.o
                0x000000000010ba9f                lflwrite
 .text          0x000000000010bb04      0x14f binaries/lfsckfmt.o
                0x000000000010bb04                lfsckfmt
 .text          0x000000000010bc53      0x1d3 binaries/lfscreate.o
                0x000000000010bc53                lfscreate
 .text          0x000000000010be26      0x1f7 binaries/lfsetup.o
                0x000000000010be26                lfsetup
 .text          0x000000000010c01d       0x52 binaries/lfsinit.o
                0x000000000010c01d                lfsinit
 .text          0x000000000010c06f      0x33f binaries/lfsopen.o
                0x000000000010c06f                lfsopen
 .text          0x000000000010c3ae      0x151 binaries/lftruncate.o
                0x000000000010c3ae                lftruncate
 .text          0x000000000010c4ff       0x83 binaries/rflclose.o
                0x000000000010c4ff                rflclose
 .text          0x000000000010c582       0x38 binaries/rflgetc.o
                0x000000000010c582                rflgetc
 .text          0x000000000010c5ba       0x80 binaries/rflinit.o
                0x000000000010c5ba                rflinit
 .text          0x000000000010c63a       0x3b binaries/rflputc.o
                0x000000000010c63a                rflputc
 .text          0x000000000010c675      0x33b binaries/rflread.o
                0x000000000010c675                rflread
 .text          0x000000000010c9b0       0x87 binaries/rflseek.o
                0x000000000010c9b0                rflseek
 .text          0x000000000010ca37      0x360 binaries/rflwrite.o
                0x000000000010ca37                rflwrite
 .text          0x000000000010cd97      0x1a6 binaries/rfscomm.o
                0x000000000010cd97                rfscomm
 .text          0x000000000010cf3d      0x27f binaries/rfscontrol.o
                0x000000000010cf3d                rfscontrol
 .text          0x000000000010d1bc       0x74 binaries/rfsgetmode.o
                0x000000000010d1bc                rfsgetmode
 .text          0x000000000010d230       0x98 binaries/rfsinit.o
                0x000000000010d230                rfsinit
 .text          0x000000000010d2c8       0xca binaries/rfsndmsg.o
                0x000000000010d2c8                rfsndmsg
 .text          0x000000000010d392      0x286 binaries/rfsopen.o
                0x000000000010d392                rfsopen
 .text          0x000000000010d618      0x6c0 binaries/arp.o
                0x000000000010d618                arp_init
                0x000000000010d63f                arp_alloc
                0x000000000010d6f0                arp_ntoh
                0x000000000010d75a                arp_hton
                0x000000000010d7c4                arp_resolve
                0x000000000010da69                arp_in
 .text          0x000000000010dcd8      0x5ea binaries/dhcp.o
                0x000000000010dcd8                dhcp_get_opt_val
                0x000000000010dd29                dhcp_bld_bootp_msg
                0x000000000010de07                dhcp_bld_disc
                0x000000000010de57                dhcp_bld_req
                0x000000000010defd                getlocalip
 .text          0x000000000010e2c2       0xc6 binaries/dot2ip.o
                0x000000000010e2c2                dot2ip
 .text          0x000000000010e388      0x3cf binaries/hexdump.o
                0x000000000010e388                hexdump
                0x000000000010e51a                hexadump
 .text          0x000000000010e757      0x778 binaries/icmp.o
                0x000000000010e757                icmp_init
                0x000000000010e77b                icmp_register
                0x000000000010e82f                icmp_recv
                0x000000000010e9ea                icmp_mkpkt
                0x000000000010eae1                icmp_in
                0x000000000010ec87                icmp_send
                0x000000000010ed0a                icmp_release
                0x000000000010ee4d                icmp_cksum
                0x000000000010eea7                icmp_hton
                0x000000000010eebb                icmp_ntoh
 .text          0x000000000010eecf      0x648 binaries/ip.o
                0x000000000010eecf                ip_local
                0x000000000010ef1c                ipcksum
                0x000000000010ef6a                ip_ntoh
                0x000000000010efd4                ip_in
                0x000000000010f11d                ip_hton
                0x000000000010f187                ip_out
                0x000000000010f247                ip_send
                0x000000000010f371                ipout
                0x000000000010f474                ip_enqueue
 .text          0x000000000010f517      0x1cc binaries/net.o
                0x000000000010f517                net_init
                0x000000000010f625                eth_hton
                0x000000000010f62f                eth_ntoh
                0x000000000010f639                netin
 .text          0x000000000010f6e3       0xd9 binaries/netstart.o
                0x000000000010f6e3                netstart
 .text          0x000000000010f7bc      0xae9 binaries/pdump.o
                0x000000000010f7bc                pdump
                0x000000000010fdf9                pdumph
 .text          0x00000000001102a5      0x5ff binaries/tftp.o
                0x00000000001102a5                tftp_send1
                0x00000000001103c7                tftpget_mb
                0x000000000011087d                tftpget
 .text          0x00000000001108a4      0xa9c binaries/udp.o
                0x00000000001108a4                udp_init
                0x00000000001108e7                udp_in
                0x0000000000110a03                udp_register
                0x0000000000110b1e                udp_recv
                0x0000000000110cc3                udp_recvaddr
                0x0000000000110e7c                udp_send
                0x0000000000111049                udp_sendto
                0x00000000001111d5                udp_release
                0x0000000000111318                udp_ntoh
                0x000000000011132c                udp_hton
 .text          0x0000000000111340      0x139 binaries/addargs.o
                0x0000000000111340                addargs
 .text          0x0000000000111479      0x234 binaries/lexan.o
                0x0000000000111479                lexan
 .text          0x00000000001116ad      0x642 binaries/shell.o
                0x00000000001116ad                shell
 .text          0x0000000000111cef       0x6e binaries/xsh_argecho.o
                0x0000000000111cef                xsh_argecho
 .text          0x0000000000111d5d      0x244 binaries/xsh_arp.o
                0x0000000000111d5d                xsh_arp
 .text          0x0000000000111fa1      0x25f binaries/xsh_cat.o
                0x0000000000111fa1                xsh_cat
 .text          0x0000000000112200       0x6d binaries/xsh_clear.o
                0x0000000000112200                xsh_clear
 .text          0x000000000011226d      0x2bc binaries/xsh_date.o
                0x000000000011226d                xsh_date
 .text          0x0000000000112529       0xa7 binaries/xsh_devdump.o
                0x0000000000112529                xsh_devdump
 .text          0x00000000001125d0       0x77 binaries/xsh_echo.o
                0x00000000001125d0                xsh_echo
 .text          0x0000000000112647        0x6 binaries/xsh_exit.o
                0x0000000000112647                xsh_exit
 .text          0x000000000011264d      0x37e binaries/xsh_help.o
                0x000000000011264d                xsh_help
 .text          0x00000000001129cb      0x386 binaries/xsh_ipaddr.o
                0x00000000001129cb                xsh_ipaddr
 .text          0x0000000000112d51      0x1ff binaries/xsh_kill.o
                0x0000000000112d51                xsh_kill
 .text          0x0000000000112f50      0x436 binaries/xsh_memdump.o
                0x0000000000112ffa                xsh_memdump
 .text          0x0000000000113386      0x221 binaries/xsh_memstat.o
                0x0000000000113386                xsh_memstat
 .text          0x00000000001135a7      0x311 binaries/xsh_ping.o
                0x00000000001135a7                xsh_ping
 .text          0x00000000001138b8      0x1d6 binaries/xsh_ps.o
                0x00000000001138b8                xsh_ps
 .text          0x0000000000113a8e      0x1da binaries/xsh_sleep.o
                0x0000000000113a8e                xsh_sleep
 .text          0x0000000000113c68      0x217 binaries/xsh_udpdump.o
                0x0000000000113c68                xsh_udpdump
 .text          0x0000000000113e7f      0x46d binaries/xsh_udpecho.o
                0x0000000000113e7f                xsh_udpecho
 .text          0x00000000001142ec      0x2a6 binaries/xsh_udpeserver.o
                0x00000000001142ec                xsh_udpeserver
 .text          0x0000000000114592      0x1f2 binaries/xsh_uptime.o
                0x0000000000114592                xsh_uptime
 .text          0x0000000000114784        0xe binaries/clkdisp.o
                0x0000000000114784                clkdisp
 .text          0x0000000000114792       0x19 binaries/ctxsw.o
                0x0000000000114792                ctxsw
 .text          0x00000000001147ab      0x368 binaries/intr.o
                0x00000000001147ab                disable
                0x00000000001147b4                restore
                0x00000000001147c2                enable
                0x00000000001147c4                pause
                0x00000000001147cb                halt
                0x00000000001147ce                spurious_irq7
                0x00000000001147d3                spurious_irq15
                0x00000000001147e2                _Xint0
                0x00000000001147ed                _Xint1
                0x00000000001147f8                _Xint2
                0x0000000000114803                _Xint3
                0x000000000011480e                _Xint4
                0x0000000000114819                _Xint5
                0x0000000000114824                _Xint6
                0x000000000011482f                _Xint7
                0x000000000011483a                _Xint8
                0x0000000000114845                _Xint9
                0x0000000000114850                _Xint10
                0x000000000011485b                _Xint11
                0x0000000000114869                _Xint12
                0x0000000000114877                _Xint13
                0x0000000000114885                _Xint14
                0x0000000000114893                _Xint15
                0x00000000001148a1                _Xint16
                0x00000000001148af                _Xint17
                0x00000000001148bd                _Xint18
                0x00000000001148cb                _Xint19
                0x00000000001148d9                _Xint20
                0x00000000001148e7                _Xint21
                0x00000000001148f5                _Xint22
                0x0000000000114903                _Xint23
                0x0000000000114911                _Xint24
                0x000000000011491f                _Xint25
                0x000000000011492d                _Xint26
                0x000000000011493b                _Xint27
                0x0000000000114949                _Xint28
                0x0000000000114957                _Xint29
                0x0000000000114965                _Xint30
                0x0000000000114973                _Xint31
                0x0000000000114981                _Xint32
                0x000000000011498f                _Xint33
                0x000000000011499d                _Xint34
                0x00000000001149ab                _Xint35
                0x00000000001149b9                _Xint36
                0x00000000001149c7                _Xint37
                0x00000000001149d5                _Xint38
                0x00000000001149e3                _Xint39
                0x00000000001149f1                _Xint40
                0x00000000001149ff                _Xint41
                0x0000000000114a0d                _Xint42
                0x0000000000114a1b                _Xint43
                0x0000000000114a29                _Xint44
                0x0000000000114a37                _Xint45
                0x0000000000114a45                _Xint46
                0x0000000000114a53                defevec
 .text          0x0000000000114b13        0xf binaries/ttydispatch.o
                0x0000000000114b13                ttydispatch
 .text          0x0000000000114b22       0x13 binaries/ethdispatch.o
                0x0000000000114b22                ethdispatch
 *(.rodata .rodata.*)
 .rodata.str1.1
                0x0000000000114b35       0x54 binaries/ascdate.o
 *fill*         0x0000000000114b89        0x3 
 .rodata.str1.4
                0x0000000000114b8c       0x22 binaries/ascdate.o
 .rodata.str1.1
                0x0000000000114bae       0x5f binaries/conf.o
 *fill*         0x0000000000114c0d        0x3 
 .rodata.str1.4
                0x0000000000114c10       0x4f binaries/early_imr.o
 *fill*         0x0000000000114c5f        0x1 
 .rodata        0x0000000000114c60       0x33 binaries/early_imr.o
 .rodata.str1.1
                0x0000000000114c93      0x20c binaries/evec.o
 *fill*         0x0000000000114e9f        0x1 
 .rodata.str1.4
                0x0000000000114ea0       0x23 binaries/evec.o
 .rodata.str1.1
                0x0000000000114ec3        0xb binaries/getutime.o
 *fill*         0x0000000000114ece        0x2 
 .rodata.str1.4
                0x0000000000114ed0       0x54 binaries/getutime.o
 .rodata.str1.4
                0x0000000000114f24       0x33 binaries/i386-stub.o
 *fill*         0x0000000000114f57        0x1 
 .rodata        0x0000000000114f58      0x129 binaries/i386-stub.o
 .rodata.str1.1
                0x0000000000115081       0x39 binaries/i386-stub.o
 .rodata.str1.1
                0x00000000001150ba       0x63 binaries/initialize.o
                                         0x67 (size before relaxing)
 *fill*         0x000000000011511d        0x3 
 .rodata.str1.4
                0x0000000000115120       0xd0 binaries/initialize.o
 .rodata        0x00000000001151f0       0x20 binaries/kill.o
 .rodata.str1.4
                0x0000000000115210       0x9a binaries/main.o
 .rodata.str1.1
                0x00000000001152aa      0x146 binaries/main.o
 .rodata.str1.4
                0x00000000001153f0       0x23 binaries/meminit.o
 .rodata.str1.1
                0x0000000000115413       0x1b binaries/meminit.o
 .rodata.str1.1
                0x000000000011542e        0xf binaries/panic.o
 .rodata.str1.1
                0x000000000011543d       0x1c binaries/ptinit.o
 *fill*         0x0000000000115459        0x3 
 .rodata.str1.4
                0x000000000011545c       0x25 binaries/ptsend.o
 .rodata.str1.1
                0x0000000000115481       0x22 binaries/quark_pdat.o
 *fill*         0x00000000001154a3        0x1 
 .rodata.str1.4
                0x00000000001154a4       0x21 binaries/receiveq.o
 .rodata.str1.1
                0x00000000001154c5       0x11 binaries/sendq.o
 *fill*         0x00000000001154d6        0x2 
 .rodata.str1.4
                0x00000000001154d8       0x27 binaries/xdone.o
 *fill*         0x00000000001154ff        0x1 
 .rodata        0x0000000000115500       0x81 binaries/ctype_.o
                0x0000000000115500                _ctype_
 .rodata.str1.1
                0x0000000000115581       0x29 binaries/doprnt.o
 *fill*         0x00000000001155aa        0x2 
 .rodata        0x00000000001155ac       0xc4 binaries/doprnt.o
 .rodata        0x0000000000115670       0x98 binaries/doscan.o
 .rodata.str1.1
                0x0000000000115708       0x29 binaries/fdoprnt.o
 .rodata        0x0000000000115708       0x84 binaries/fdoprnt.o
 .rodata        0x000000000011578c       0x20 binaries/ttycontrol.o
 .rodata.str1.4
                0x00000000001157ac       0x4c binaries/naminit.o
 .rodata.str1.1
                0x00000000001157f8       0x32 binaries/naminit.o
                                         0x35 (size before relaxing)
 .rodata.str1.1
                0x000000000011582a       0x15 binaries/ethinit.o
 *fill*         0x000000000011583f        0x1 
 .rodata.str1.4
                0x0000000000115840       0x2e binaries/ethinit.o
 *fill*         0x000000000011586e        0x2 
 .rodata.str1.4
                0x0000000000115870       0x2c binaries/rdsbufalloc.o
 .rodata.str1.4
                0x000000000011589c       0x76 binaries/rdscomm.o
 *fill*         0x0000000000115912        0x2 
 .rodata.str1.4
                0x0000000000115914       0x48 binaries/rdscontrol.o
 .rodata.str1.4
                0x000000000011595c       0x7e binaries/rdsinit.o
 .rodata.str1.1
                0x00000000001159da       0x18 binaries/rdsinit.o
 *fill*         0x00000000001159f2        0x2 
 .rodata.str1.4
                0x00000000001159f4       0x22 binaries/rdsopen.o
 *fill*         0x0000000000115a16        0x2 
 .rodata.str1.4
                0x0000000000115a18       0x4d binaries/rdsprocess.o
 .rodata.str1.1
                0x0000000000115a65        0x9 binaries/raminit.o
 .rodata.str1.1
                0x0000000000115a6e       0x13 binaries/lfdballoc.o
 *fill*         0x0000000000115a81        0x3 
 .rodata.str1.4
                0x0000000000115a84       0x23 binaries/lfdballoc.o
 .rodata.str1.1
                0x0000000000115aa7       0x14 binaries/lfiballoc.o
 *fill*         0x0000000000115abb        0x1 
 .rodata.str1.4
                0x0000000000115abc       0x23 binaries/lflcontrol.o
 .rodata.str1.1
                0x0000000000115adf       0x64 binaries/lfsckfmt.o
 *fill*         0x0000000000115b43        0x1 
 .rodata.str1.4
                0x0000000000115b44       0x51 binaries/lfsckfmt.o
 *fill*         0x0000000000115b95        0x3 
 .rodata.str1.4
                0x0000000000115b98       0x21 binaries/rflread.o
 .rodata.str1.4
                0x0000000000115bb9       0x21 binaries/rflwrite.o
 *fill*         0x0000000000115bb9        0x3 
 .rodata.str1.4
                0x0000000000115bbc       0x75 binaries/rfscomm.o
 *fill*         0x0000000000115c31        0x3 
 .rodata.str1.4
                0x0000000000115c34       0x23 binaries/rfscontrol.o
 *fill*         0x0000000000115c57        0x1 
 .rodata        0x0000000000115c58       0x18 binaries/rfscontrol.o
 .rodata.str1.1
                0x0000000000115c70       0x10 binaries/rfsinit.o
 .rodata.str1.4
                0x0000000000115c70       0x57 binaries/rfsinit.o
 *fill*         0x0000000000115cc7        0x1 
 .rodata.str1.4
                0x0000000000115cc8       0x2a binaries/rfsndmsg.o
 .rodata.str1.4
                0x0000000000115cf2       0x22 binaries/rfsopen.o
 .rodata.str1.1
                0x0000000000115cf2       0x19 binaries/arp.o
 *fill*         0x0000000000115d0b        0x1 
 .rodata.str1.4
                0x0000000000115d0c       0x21 binaries/arp.o
 *fill*         0x0000000000115d2d        0x3 
 .rodata.str1.4
                0x0000000000115d30       0xa6 binaries/dhcp.o
 .rodata.str1.1
                0x0000000000115dd6       0x4a binaries/dhcp.o
 .rodata.str1.1
                0x0000000000115e20       0x5a binaries/hexdump.o
                                         0x61 (size before relaxing)
 *fill*         0x0000000000115e7a        0x2 
 .rodata.str1.4
                0x0000000000115e7c       0x67 binaries/hexdump.o
 *fill*         0x0000000000115ee3        0x1 
 .rodata.str1.4
                0x0000000000115ee4       0x29 binaries/icmp.o
 .rodata.str1.1
                0x0000000000115f0d       0x4e binaries/ip.o
 *fill*         0x0000000000115f5b        0x1 
 .rodata.str1.4
                0x0000000000115f5c       0x20 binaries/ip.o
 .rodata.str1.4
                0x0000000000115f7c       0x28 binaries/net.o
 .rodata.str1.1
                0x0000000000115fa4       0x27 binaries/net.o
 *fill*         0x0000000000115fcb        0x1 
 .rodata.str1.4
                0x0000000000115fcc       0xcf binaries/netstart.o
 .rodata.str1.1
                0x000000000011609b      0x13e binaries/pdump.o
                                        0x14b (size before relaxing)
 *fill*         0x00000000001161d9        0x3 
 .rodata.str1.4
                0x00000000001161dc      0x126 binaries/pdump.o
 *fill*         0x0000000000116302        0x2 
 .rodata.str1.4
                0x0000000000116304      0x148 binaries/tftp.o
 .rodata.str1.1
                0x000000000011644c        0x6 binaries/tftp.o
                                          0xa (size before relaxing)
 .rodata.str1.1
                0x0000000000116452       0xe3 binaries/shell.o
                                         0xff (size before relaxing)
 *fill*         0x0000000000116535        0x3 
 .rodata.str1.4
                0x0000000000116538      0x1c4 binaries/shell.o
 .rodata.str1.1
                0x00000000001166fc       0x26 binaries/xsh_argecho.o
                                         0x28 (size before relaxing)
 .rodata.str1.1
                0x0000000000116722       0x70 binaries/xsh_arp.o
                                         0x72 (size before relaxing)
 *fill*         0x0000000000116792        0x2 
 .rodata.str1.4
                0x0000000000116794       0xb4 binaries/xsh_arp.o
 .rodata.str1.1
                0x0000000000116848       0x2d binaries/xsh_cat.o
                                         0x4f (size before relaxing)
 *fill*         0x0000000000116875        0x3 
 .rodata.str1.4
                0x0000000000116878       0x52 binaries/xsh_cat.o
                                         0x79 (size before relaxing)
 .rodata.str1.1
                0x00000000001168ca       0x15 binaries/xsh_clear.o
 .rodata.str1.1
                0x00000000001168df       0x46 binaries/xsh_date.o
                                         0x5f (size before relaxing)
 *fill*         0x0000000000116925        0x3 
 .rodata.str1.4
                0x0000000000116928      0x163 binaries/xsh_date.o
 .rodata.str1.1
                0x0000000000116a8b       0x5d binaries/xsh_devdump.o
 .rodata.str1.1
                0x0000000000116ae8        0x4 binaries/xsh_echo.o
                                          0x9 (size before relaxing)
 .rodata.str1.1
                0x0000000000116aec       0x65 binaries/xsh_help.o
                                         0xa3 (size before relaxing)
 *fill*         0x0000000000116b51        0x3 
 .rodata.str1.4
                0x0000000000116b54       0x7c binaries/xsh_help.o
                                         0xc6 (size before relaxing)
 .rodata.str1.1
                0x0000000000116bd0       0x9c binaries/xsh_ipaddr.o
                                         0xf8 (size before relaxing)
 .rodata.str1.4
                0x0000000000116c6c       0x4d binaries/xsh_ipaddr.o
                                         0x99 (size before relaxing)
 .rodata.str1.1
                0x0000000000116cb9       0x78 binaries/xsh_kill.o
                                         0x97 (size before relaxing)
 *fill*         0x0000000000116d31        0x3 
 .rodata.str1.4
                0x0000000000116d34       0x4a binaries/xsh_kill.o
                                         0x96 (size before relaxing)
 .rodata.str1.1
                0x0000000000116d7e       0x84 binaries/xsh_memdump.o
                                         0xa8 (size before relaxing)
 *fill*         0x0000000000116e02        0x2 
 .rodata.str1.4
                0x0000000000116e04      0x15a binaries/xsh_memdump.o
                                        0x1aa (size before relaxing)
 .rodata.str1.1
                0x0000000000116f5e       0x40 binaries/xsh_memstat.o
                                         0x79 (size before relaxing)
 *fill*         0x0000000000116f9e        0x2 
 .rodata.str1.4
                0x0000000000116fa0      0x187 binaries/xsh_memstat.o
                                        0x1af (size before relaxing)
 .rodata.str1.1
                0x0000000000117127       0x90 binaries/xsh_ping.o
                                         0xaf (size before relaxing)
 *fill*         0x00000000001171b7        0x1 
 .rodata.str1.4
                0x00000000001171b8       0x77 binaries/xsh_ping.o
                                         0xc6 (size before relaxing)
 .rodata.str1.1
                0x000000000011722f       0x74 binaries/xsh_ps.o
                                         0xd5 (size before relaxing)
 *fill*         0x00000000001172a3        0x1 
 .rodata.str1.4
                0x00000000001172a4       0x80 binaries/xsh_ps.o
                                         0xd0 (size before relaxing)
 .rodata.str1.1
                0x0000000000117324       0x31 binaries/xsh_sleep.o
                                         0x72 (size before relaxing)
 *fill*         0x0000000000117355        0x3 
 .rodata.str1.4
                0x0000000000117358       0x2a binaries/xsh_sleep.o
                                         0x7a (size before relaxing)
 .rodata.str1.1
                0x0000000000117382       0x6b binaries/xsh_udpdump.o
                                         0xd2 (size before relaxing)
 *fill*         0x00000000001173ed        0x3 
 .rodata.str1.4
                0x00000000001173f0       0x94 binaries/xsh_udpdump.o
                                         0xe4 (size before relaxing)
 .rodata.str1.1
                0x0000000000117484       0xdb binaries/xsh_udpecho.o
                                         0xfa (size before relaxing)
 *fill*         0x000000000011755f        0x1 
 .rodata.str1.4
                0x0000000000117560       0xc7 binaries/xsh_udpecho.o
                                        0x116 (size before relaxing)
 .rodata.str1.1
                0x0000000000117627       0x66 binaries/xsh_udpeserver.o
                                         0x8f (size before relaxing)
 *fill*         0x000000000011768d        0x3 
 .rodata.str1.4
                0x0000000000117690       0x29 binaries/xsh_udpeserver.o
                                         0x9f (size before relaxing)
 .rodata.str1.1
                0x00000000001176b9       0x49 binaries/xsh_uptime.o
                                         0x8c (size before relaxing)
 *fill*         0x0000000000117702        0x2 
 .rodata.str1.4
                0x0000000000117704       0x28 binaries/xsh_uptime.o
                                         0x76 (size before relaxing)
                0x000000000011772c                etext = ABSOLUTE (.)
                0x0000000000118000                . = ALIGN (0x1000)
 *fill*         0x000000000011772c      0x8d4 

.eh_frame       0x0000000000118000     0x77b0
 .eh_frame      0x0000000000118000       0x98 binaries/ascdate.o
 .eh_frame      0x0000000000118098       0x28 binaries/bufinit.o
                                         0x40 (size before relaxing)
 .eh_frame      0x00000000001180c0       0x54 binaries/cbreg.o
                                         0x80 (size before relaxing)
 .eh_frame      0x0000000000118114       0x54 binaries/chprio.o
                                         0x80 (size before relaxing)
 .eh_frame      0x0000000000118168       0x24 binaries/clkhandler.o
                                         0x50 (size before relaxing)
 .eh_frame      0x000000000011818c       0x44 binaries/clkinit.o
                                         0x70 (size before relaxing)
 .eh_frame      0x00000000001181d0       0x44 binaries/close.o
                                         0x70 (size before relaxing)
 .eh_frame      0x0000000000118214       0x48 binaries/control.o
                                         0x74 (size before relaxing)
 .eh_frame      0x000000000011825c       0x5c binaries/create.o
                                         0x88 (size before relaxing)
 .eh_frame      0x00000000001182b8      0x164 binaries/early_imr.o
                                        0x190 (size before relaxing)
 .eh_frame      0x000000000011841c      0x1f8 binaries/evec.o
                                        0x224 (size before relaxing)
 .eh_frame      0x0000000000118614       0x58 binaries/freebuf.o
                                         0x84 (size before relaxing)
 .eh_frame      0x000000000011866c       0x5c binaries/freemem.o
                                         0x88 (size before relaxing)
 .eh_frame      0x00000000001186c8       0x50 binaries/getbuf.o
                                         0x7c (size before relaxing)
 .eh_frame      0x0000000000118718       0x44 binaries/getc.o
                                         0x70 (size before relaxing)
 .eh_frame      0x000000000011875c       0x60 binaries/getdev.o
                                         0x8c (size before relaxing)
 .eh_frame      0x00000000001187bc       0x68 binaries/getitem.o
                                         0x94 (size before relaxing)
 .eh_frame      0x0000000000118824       0x54 binaries/getmem.o
                                         0x80 (size before relaxing)
 .eh_frame      0x0000000000118878       0x14 binaries/getpid.o
                                         0x40 (size before relaxing)
 .eh_frame      0x000000000011888c       0x40 binaries/getprio.o
                                         0x6c (size before relaxing)
 .eh_frame      0x00000000001188cc       0x5c binaries/getstk.o
                                         0x88 (size before relaxing)
 .eh_frame      0x0000000000118928       0x2c binaries/gettime.o
                                         0x58 (size before relaxing)
 .eh_frame      0x0000000000118954       0x98 binaries/getutime.o
                                         0xc4 (size before relaxing)
 .eh_frame      0x00000000001189ec      0x524 binaries/i386-stub.o
                                        0x578 (size before relaxing)
 .eh_frame      0x0000000000118f10       0x44 binaries/init.o
                                         0x70 (size before relaxing)
 .eh_frame      0x0000000000118f54       0xe0 binaries/initialize.o
                                        0x10c (size before relaxing)
 .eh_frame      0x0000000000119034       0x44 binaries/insert.o
                                         0x5c (size before relaxing)
 .eh_frame      0x0000000000119078       0x40 binaries/insertd.o
                                         0x6c (size before relaxing)
 .eh_frame      0x00000000001190b8       0x14 binaries/ioerr.o
                                         0x2c (size before relaxing)
 .eh_frame      0x00000000001190cc       0x14 binaries/ionull.o
                                         0x2c (size before relaxing)
 .eh_frame      0x00000000001190e0       0x78 binaries/kill.o
                                         0xa4 (size before relaxing)
 .eh_frame      0x0000000000119158       0x90 binaries/kprintf.o
                                         0xd0 (size before relaxing)
 .eh_frame      0x00000000001191e8      0x204 binaries/main.o
                                        0x230 (size before relaxing)
 .eh_frame      0x00000000001193ec       0x64 binaries/mark.o
                                         0x90 (size before relaxing)
 .eh_frame      0x0000000000119450       0x80 binaries/meminit.o
                                         0xac (size before relaxing)
 .eh_frame      0x00000000001194d0       0x78 binaries/mkbufpool.o
                                         0xa4 (size before relaxing)
 .eh_frame      0x0000000000119548       0x1c binaries/newqueue.o
                                         0x48 (size before relaxing)
 .eh_frame      0x0000000000119564       0x48 binaries/open.o
                                         0x74 (size before relaxing)
 .eh_frame      0x00000000001195ac       0x28 binaries/panic.o
                                         0x54 (size before relaxing)
 .eh_frame      0x00000000001195d4       0xf4 binaries/pci.o
                                        0x10c (size before relaxing)
 .eh_frame      0x00000000001196c8       0x40 binaries/platinit.o
                                         0x6c (size before relaxing)
 .eh_frame      0x0000000000119708       0x6c binaries/ptclear.o
                                         0x98 (size before relaxing)
 .eh_frame      0x0000000000119774       0x64 binaries/ptcount.o
                                         0x90 (size before relaxing)
 .eh_frame      0x00000000001197d8       0x60 binaries/ptcreate.o
                                         0x8c (size before relaxing)
 .eh_frame      0x0000000000119838       0x48 binaries/ptdelete.o
                                         0x74 (size before relaxing)
 .eh_frame      0x0000000000119880       0x44 binaries/ptinit.o
                                         0x70 (size before relaxing)
 .eh_frame      0x00000000001198c4       0x64 binaries/ptrecv.o
                                         0x90 (size before relaxing)
 .eh_frame      0x0000000000119928       0x48 binaries/ptreset.o
                                         0x74 (size before relaxing)
 .eh_frame      0x0000000000119970       0x70 binaries/ptsend.o
                                         0x9c (size before relaxing)
 .eh_frame      0x00000000001199e0       0x54 binaries/putc.o
                                         0x80 (size before relaxing)
 .eh_frame      0x0000000000119a34       0x6c binaries/quark_irq.o
                                         0x98 (size before relaxing)
 .eh_frame      0x0000000000119aa0       0xe8 binaries/quark_pdat.o
                                        0x114 (size before relaxing)
 .eh_frame      0x0000000000119b88       0x4c binaries/queue.o
                                         0x78 (size before relaxing)
 .eh_frame      0x0000000000119bd4       0x48 binaries/read.o
                                         0x74 (size before relaxing)
 .eh_frame      0x0000000000119c1c       0x34 binaries/ready.o
                                         0x60 (size before relaxing)
 .eh_frame      0x0000000000119c50       0x5c binaries/receive.o
                                         0x88 (size before relaxing)
 .eh_frame      0x0000000000119cac       0x8c binaries/receiveq.o
                                         0xb8 (size before relaxing)
 .eh_frame      0x0000000000119d38       0x38 binaries/recvclr.o
                                         0x64 (size before relaxing)
 .eh_frame      0x0000000000119d70       0x60 binaries/recvtime.o
                                         0x8c (size before relaxing)
 .eh_frame      0x0000000000119dd0       0x84 binaries/resched.o
                                         0xc4 (size before relaxing)
 .eh_frame      0x0000000000119e54       0x5c binaries/resume.o
                                         0x88 (size before relaxing)
 .eh_frame      0x0000000000119eb0       0x44 binaries/seek.o
                                         0x70 (size before relaxing)
 .eh_frame      0x0000000000119ef4       0x40 binaries/semcount.o
                                         0x6c (size before relaxing)
 .eh_frame      0x0000000000119f34       0x54 binaries/semcreate.o
                                         0x80 (size before relaxing)
 .eh_frame      0x0000000000119f88       0x6c binaries/semdelete.o
                                         0x98 (size before relaxing)
 .eh_frame      0x0000000000119ff4       0x6c binaries/semreset.o
                                         0x98 (size before relaxing)
 .eh_frame      0x000000000011a060       0x68 binaries/sendblk.o
                                         0x94 (size before relaxing)
 .eh_frame      0x000000000011a0c8       0x60 binaries/send.o
                                         0x8c (size before relaxing)
 .eh_frame      0x000000000011a128       0x70 binaries/sendq.o
                                         0x9c (size before relaxing)
 .eh_frame      0x000000000011a198       0x54 binaries/signal.o
                                         0x80 (size before relaxing)
 .eh_frame      0x000000000011a1ec       0x70 binaries/signaln.o
                                         0x9c (size before relaxing)
 .eh_frame      0x000000000011a25c       0x80 binaries/sleep.o
                                         0xac (size before relaxing)
 .eh_frame      0x000000000011a2dc       0x54 binaries/suspend.o
                                         0x80 (size before relaxing)
 .eh_frame      0x000000000011a330       0x4c binaries/unsleep.o
                                         0x78 (size before relaxing)
 .eh_frame      0x000000000011a37c       0x28 binaries/userret.o
                                         0x54 (size before relaxing)
 .eh_frame      0x000000000011a3a4       0x58 binaries/wait.o
                                         0x84 (size before relaxing)
 .eh_frame      0x000000000011a3fc       0x48 binaries/wakeup.o
                                         0x74 (size before relaxing)
 .eh_frame      0x000000000011a444       0x48 binaries/write.o
                                         0x74 (size before relaxing)
 .eh_frame      0x000000000011a48c       0x24 binaries/xdone.o
                                         0x50 (size before relaxing)
 .eh_frame      0x000000000011a4b0       0x30 binaries/yield.o
                                         0x5c (size before relaxing)
 .eh_frame      0x000000000011a4e0       0x14 binaries/abs.o
                                         0x2c (size before relaxing)
 .eh_frame      0x000000000011a4f4       0x28 binaries/atoi.o
                                         0x40 (size before relaxing)
 .eh_frame      0x000000000011a51c       0x28 binaries/atol.o
                                         0x40 (size before relaxing)
 .eh_frame      0x000000000011a544       0x14 binaries/bzero.o
                                         0x2c (size before relaxing)
 .eh_frame      0x000000000011a558      0x160 binaries/doprnt.o
                                        0x1a0 (size before relaxing)
 .eh_frame      0x000000000011a6b8      0x108 binaries/doscan.o
                                        0x134 (size before relaxing)
 .eh_frame      0x000000000011a7c0      0x114 binaries/fdoprnt.o
                                        0x140 (size before relaxing)
 .eh_frame      0x000000000011a8d4       0x2c binaries/fgetc.o
                                         0x58 (size before relaxing)
 .eh_frame      0x000000000011a900       0x48 binaries/fgets.o
                                         0x74 (size before relaxing)
 .eh_frame      0x000000000011a948       0x2c binaries/fprintf.o
                                         0x58 (size before relaxing)
 .eh_frame      0x000000000011a974       0x2c binaries/fputc.o
                                         0x58 (size before relaxing)
 .eh_frame      0x000000000011a9a0       0x3c binaries/fputs.o
                                         0x68 (size before relaxing)
 .eh_frame      0x000000000011a9dc       0x7c binaries/fscanf.o
                                         0xa8 (size before relaxing)
 .eh_frame      0x000000000011aa58       0x24 binaries/getchar.o
                                         0x50 (size before relaxing)
 .eh_frame      0x000000000011aa7c       0x14 binaries/labs.o
                                         0x2c (size before relaxing)
 .eh_frame      0x000000000011aa90       0x14 binaries/memchr.o
                                         0x2c (size before relaxing)
 .eh_frame      0x000000000011aaa4       0x28 binaries/memcmp.o
                                         0x40 (size before relaxing)
 .eh_frame      0x000000000011aacc       0x24 binaries/memcpy.o
                                         0x3c (size before relaxing)
 .eh_frame      0x000000000011aaf0       0x1c binaries/memset.o
                                         0x34 (size before relaxing)
 .eh_frame      0x000000000011ab0c       0x2c binaries/printf.o
                                         0x58 (size before relaxing)
 .eh_frame      0x000000000011ab38       0x28 binaries/putchar.o
                                         0x54 (size before relaxing)
 .eh_frame      0x000000000011ab60       0xc8 binaries/qsort.o
                                        0x11c (size before relaxing)
 .eh_frame      0x000000000011ac28       0x28 binaries/rand.o
                                         0x68 (size before relaxing)
 .eh_frame      0x000000000011ac50       0x54 binaries/sprintf.o
                                         0x80 (size before relaxing)
 .eh_frame      0x000000000011aca4       0x5c binaries/sscanf.o
                                         0x88 (size before relaxing)
 .eh_frame      0x000000000011ad00       0x20 binaries/strchr.o
                                         0x38 (size before relaxing)
 .eh_frame      0x000000000011ad20       0x20 binaries/strcmp.o
                                         0x38 (size before relaxing)
 .eh_frame      0x000000000011ad40       0x14 binaries/strcpy.o
                                         0x2c (size before relaxing)
 .eh_frame      0x000000000011ad54       0x14 binaries/strlen.o
                                         0x2c (size before relaxing)
 .eh_frame      0x000000000011ad68       0x2c binaries/strncat.o
                                         0x44 (size before relaxing)
 .eh_frame      0x000000000011ad94       0x1c binaries/strncmp.o
                                         0x34 (size before relaxing)
 .eh_frame      0x000000000011adb0       0x30 binaries/strncpy.o
                                         0x48 (size before relaxing)
 .eh_frame      0x000000000011ade0       0x14 binaries/strnlen.o
                                         0x2c (size before relaxing)
 .eh_frame      0x000000000011adf4       0x20 binaries/strrchr.o
                                         0x38 (size before relaxing)
 .eh_frame      0x000000000011ae14       0x3c binaries/strstr.o
                                         0x54 (size before relaxing)
 .eh_frame      0x000000000011ae50       0x58 binaries/ttycontrol.o
                                         0x84 (size before relaxing)
 .eh_frame      0x000000000011aea8       0x44 binaries/ttygetc.o
                                         0x70 (size before relaxing)
 .eh_frame      0x000000000011aeec       0xe0 binaries/ttyhandle_in.o
                                        0x10c (size before relaxing)
 .eh_frame      0x000000000011afcc       0x68 binaries/ttyhandle_out.o
                                         0x94 (size before relaxing)
 .eh_frame      0x000000000011b034       0x5c binaries/ttyhandler.o
                                         0x88 (size before relaxing)
 .eh_frame      0x000000000011b090       0x4c binaries/ttyinit.o
                                         0x78 (size before relaxing)
 .eh_frame      0x000000000011b0dc       0x14 binaries/ttykickout.o
                                         0x2c (size before relaxing)
 .eh_frame      0x000000000011b0f0       0x64 binaries/ttyputc.o
                                         0x90 (size before relaxing)
 .eh_frame      0x000000000011b154       0x64 binaries/ttyread.o
                                         0x90 (size before relaxing)
 .eh_frame      0x000000000011b1b8       0x4c binaries/ttywrite.o
                                         0x78 (size before relaxing)
 .eh_frame      0x000000000011b204       0x7c binaries/mount.o
                                         0xa8 (size before relaxing)
 .eh_frame      0x000000000011b280       0xe4 binaries/naminit.o
                                        0x110 (size before relaxing)
 .eh_frame      0x000000000011b364       0xf0 binaries/nammap.o
                                        0x130 (size before relaxing)
 .eh_frame      0x000000000011b454       0x48 binaries/namopen.o
                                         0x74 (size before relaxing)
 .eh_frame      0x000000000011b49c       0x3c binaries/colon2mac.o
                                         0x68 (size before relaxing)
 .eh_frame      0x000000000011b4d8       0x4c binaries/ethcontrol.o
                                         0x78 (size before relaxing)
 .eh_frame      0x000000000011b524       0x58 binaries/ethhandler.o
                                         0x84 (size before relaxing)
 .eh_frame      0x000000000011b57c      0x154 binaries/ethinit.o
                                        0x180 (size before relaxing)
 .eh_frame      0x000000000011b6d0       0xa8 binaries/ethmcast.o
                                         0xd4 (size before relaxing)
 .eh_frame      0x000000000011b778       0x80 binaries/ethread.o
                                         0xac (size before relaxing)
 .eh_frame      0x000000000011b7f8       0x48 binaries/ethwrite.o
                                         0x74 (size before relaxing)
 .eh_frame      0x000000000011b840       0x3c binaries/rdsbufalloc.o
                                         0x68 (size before relaxing)
 .eh_frame      0x000000000011b87c       0x3c binaries/rdsclose.o
                                         0x68 (size before relaxing)
 .eh_frame      0x000000000011b8b8       0x90 binaries/rdscomm.o
                                         0xbc (size before relaxing)
 .eh_frame      0x000000000011b948       0xb4 binaries/rdscontrol.o
                                         0xe0 (size before relaxing)
 .eh_frame      0x000000000011b9fc       0x9c binaries/rdsinit.o
                                         0xc8 (size before relaxing)
 .eh_frame      0x000000000011ba98       0x80 binaries/rdsopen.o
                                         0xac (size before relaxing)
 .eh_frame      0x000000000011bb18       0xf8 binaries/rdsprocess.o
                                        0x124 (size before relaxing)
 .eh_frame      0x000000000011bc10       0x7c binaries/rdsread.o
                                         0xa8 (size before relaxing)
 .eh_frame      0x000000000011bc8c       0x80 binaries/rdswrite.o
                                         0xac (size before relaxing)
 .eh_frame      0x000000000011bd0c       0x14 binaries/ramclose.o
                                         0x2c (size before relaxing)
 .eh_frame      0x000000000011bd20       0x40 binaries/raminit.o
                                         0x6c (size before relaxing)
 .eh_frame      0x000000000011bd60       0x14 binaries/ramopen.o
                                         0x2c (size before relaxing)
 .eh_frame      0x000000000011bd74       0x2c binaries/ramread.o
                                         0x58 (size before relaxing)
 .eh_frame      0x000000000011bda0       0x2c binaries/ramwrite.o
                                         0x58 (size before relaxing)
 .eh_frame      0x000000000011bdcc       0x80 binaries/lfdballoc.o
                                         0xac (size before relaxing)
 .eh_frame      0x000000000011be4c       0x50 binaries/lfdbfree.o
                                         0x7c (size before relaxing)
 .eh_frame      0x000000000011be9c       0x5c binaries/lfflush.o
                                         0x88 (size before relaxing)
 .eh_frame      0x000000000011bef8       0x14 binaries/lfgetmode.o
                                         0x2c (size before relaxing)
 .eh_frame      0x000000000011bf0c       0x5c binaries/lfiballoc.o
                                         0x88 (size before relaxing)
 .eh_frame      0x000000000011bf68       0x14 binaries/lfibclear.o
                                         0x2c (size before relaxing)
 .eh_frame      0x000000000011bf7c       0x4c binaries/lfibget.o
                                         0x78 (size before relaxing)
 .eh_frame      0x000000000011bfc8       0x68 binaries/lfibput.o
                                         0x94 (size before relaxing)
 .eh_frame      0x000000000011c030       0x54 binaries/lflclose.o
                                         0x80 (size before relaxing)
 .eh_frame      0x000000000011c084       0x74 binaries/lflcontrol.o
                                         0xa0 (size before relaxing)
 .eh_frame      0x000000000011c0f8       0x6c binaries/lflgetc.o
                                         0x98 (size before relaxing)
 .eh_frame      0x000000000011c164       0x5c binaries/lflinit.o
                                         0x88 (size before relaxing)
 .eh_frame      0x000000000011c1c0       0x6c binaries/lflputc.o
                                         0x98 (size before relaxing)
 .eh_frame      0x000000000011c22c       0x48 binaries/lflread.o
                                         0x74 (size before relaxing)
 .eh_frame      0x000000000011c274       0x60 binaries/lflseek.o
                                         0x8c (size before relaxing)
 .eh_frame      0x000000000011c2d4       0x48 binaries/lflwrite.o
                                         0x74 (size before relaxing)
 .eh_frame      0x000000000011c31c       0xd4 binaries/lfsckfmt.o
                                        0x100 (size before relaxing)
 .eh_frame      0x000000000011c3f0       0xd4 binaries/lfscreate.o
                                        0x100 (size before relaxing)
 .eh_frame      0x000000000011c4c4       0xbc binaries/lfsetup.o
                                         0xe8 (size before relaxing)
 .eh_frame      0x000000000011c580       0x38 binaries/lfsinit.o
                                         0x64 (size before relaxing)
 .eh_frame      0x000000000011c5b8       0x90 binaries/lfsopen.o
                                         0xbc (size before relaxing)
 .eh_frame      0x000000000011c648       0x84 binaries/lftruncate.o
                                         0xb0 (size before relaxing)
 .eh_frame      0x000000000011c6cc       0x3c binaries/rflclose.o
                                         0x68 (size before relaxing)
 .eh_frame      0x000000000011c708       0x30 binaries/rflgetc.o
                                         0x5c (size before relaxing)
 .eh_frame      0x000000000011c738       0x30 binaries/rflinit.o
                                         0x5c (size before relaxing)
 .eh_frame      0x000000000011c768       0x30 binaries/rflputc.o
                                         0x5c (size before relaxing)
 .eh_frame      0x000000000011c798       0xdc binaries/rflread.o
                                        0x108 (size before relaxing)
 .eh_frame      0x000000000011c874       0x3c binaries/rflseek.o
                                         0x68 (size before relaxing)
 .eh_frame      0x000000000011c8b0       0xd0 binaries/rflwrite.o
                                         0xfc (size before relaxing)
 .eh_frame      0x000000000011c980       0x88 binaries/rfscomm.o
                                         0xb4 (size before relaxing)
 .eh_frame      0x000000000011ca08      0x11c binaries/rfscontrol.o
                                        0x148 (size before relaxing)
 .eh_frame      0x000000000011cb24       0x14 binaries/rfsgetmode.o
                                         0x2c (size before relaxing)
 .eh_frame      0x000000000011cb38       0x50 binaries/rfsinit.o
                                         0x7c (size before relaxing)
 .eh_frame      0x000000000011cb88       0x50 binaries/rfsndmsg.o
                                         0x7c (size before relaxing)
 .eh_frame      0x000000000011cbd8       0xdc binaries/rfsopen.o
                                        0x108 (size before relaxing)
 .eh_frame      0x000000000011ccb4      0x27c binaries/arp.o
                                        0x2bc (size before relaxing)
 .eh_frame      0x000000000011cf30      0x284 binaries/dhcp.o
                                        0x2b0 (size before relaxing)
 .eh_frame      0x000000000011d1b4       0x40 binaries/dot2ip.o
                                         0x58 (size before relaxing)
 .eh_frame      0x000000000011d1f4      0x1bc binaries/hexdump.o
                                        0x1e8 (size before relaxing)
 .eh_frame      0x000000000011d3b0      0x310 binaries/icmp.o
                                        0x350 (size before relaxing)
 .eh_frame      0x000000000011d6c0      0x2e8 binaries/ip.o
                                        0x314 (size before relaxing)
 .eh_frame      0x000000000011d9a8      0x138 binaries/net.o
                                        0x164 (size before relaxing)
 .eh_frame      0x000000000011dae0       0x74 binaries/netstart.o
                                         0xa0 (size before relaxing)
 .eh_frame      0x000000000011db54      0x394 binaries/pdump.o
                                        0x3c0 (size before relaxing)
 .eh_frame      0x000000000011dee8      0x260 binaries/tftp.o
                                        0x28c (size before relaxing)
 .eh_frame      0x000000000011e148      0x36c binaries/udp.o
                                        0x3ac (size before relaxing)
 .eh_frame      0x000000000011e4b4       0x68 binaries/addargs.o
                                         0x94 (size before relaxing)
 .eh_frame      0x000000000011e51c       0x40 binaries/lexan.o
                                         0x58 (size before relaxing)
 .eh_frame      0x000000000011e55c      0x24c binaries/shell.o
                                        0x278 (size before relaxing)
 .eh_frame      0x000000000011e7a8       0x5c binaries/xsh_argecho.o
                                         0x88 (size before relaxing)
 .eh_frame      0x000000000011e804       0xe0 binaries/xsh_arp.o
                                        0x10c (size before relaxing)
 .eh_frame      0x000000000011e8e4       0xac binaries/xsh_cat.o
                                         0xd8 (size before relaxing)
 .eh_frame      0x000000000011e990       0x3c binaries/xsh_clear.o
                                         0x68 (size before relaxing)
 .eh_frame      0x000000000011e9cc      0x108 binaries/xsh_date.o
                                        0x134 (size before relaxing)
 .eh_frame      0x000000000011ead4       0x64 binaries/xsh_devdump.o
                                         0x90 (size before relaxing)
 .eh_frame      0x000000000011eb38       0x5c binaries/xsh_echo.o
                                         0x88 (size before relaxing)
 .eh_frame      0x000000000011eb94       0x14 binaries/xsh_exit.o
                                         0x2c (size before relaxing)
 .eh_frame      0x000000000011eba8       0xd4 binaries/xsh_help.o
                                        0x100 (size before relaxing)
 .eh_frame      0x000000000011ec7c      0x194 binaries/xsh_ipaddr.o
                                        0x1c0 (size before relaxing)
 .eh_frame      0x000000000011ee10       0xac binaries/xsh_kill.o
                                         0xd8 (size before relaxing)
 .eh_frame      0x000000000011eebc      0x130 binaries/xsh_memdump.o
                                        0x15c (size before relaxing)
 .eh_frame      0x000000000011efec       0xbc binaries/xsh_memstat.o
                                         0xe8 (size before relaxing)
 .eh_frame      0x000000000011f0a8      0x10c binaries/xsh_ping.o
                                        0x138 (size before relaxing)
 .eh_frame      0x000000000011f1b4       0xd8 binaries/xsh_ps.o
                                        0x104 (size before relaxing)
 .eh_frame      0x000000000011f28c       0xac binaries/xsh_sleep.o
                                         0xd8 (size before relaxing)
 .eh_frame      0x000000000011f338       0xe8 binaries/xsh_udpdump.o
                                        0x114 (size before relaxing)
 .eh_frame      0x000000000011f420      0x1b0 binaries/xsh_udpecho.o
                                        0x1dc (size before relaxing)
 .eh_frame      0x000000000011f5d0      0x128 binaries/xsh_udpeserver.o
                                        0x154 (size before relaxing)
 .eh_frame      0x000000000011f6f8       0xb8 binaries/xsh_uptime.o
                                         0xe4 (size before relaxing)

.iplt           0x000000000011f7b0        0x0
 .iplt          0x000000000011f7b0        0x0 binaries/start.o

.rel.dyn        0x000000000011f7b0        0x0
 .rel.got       0x000000000011f7b0        0x0 binaries/start.o
 .rel.iplt      0x000000000011f7b0        0x0 binaries/start.o
 .rel.text      0x000000000011f7b0        0x0 binaries/start.o
 .rel.data.rel  0x000000000011f7b0        0x0 binaries/start.o

.data           0x000000000011f7c0     0x1840
                0x000000000011f7c0                data = ABSOLUTE (.)
 *(.data .data.*)
 .data          0x000000000011f7c0      0x85a binaries/start.o
                0x000000000011f7c0                gdt
                0x000000000011f810                idt
                0x0000000000120016                cpudelay
 .data          0x000000000012001a        0x0 binaries/ascdate.o
 *fill*         0x000000000012001a        0x6 
 .data.rel.local
                0x0000000000120020       0x88 binaries/ascdate.o
                0x0000000000120020                Date
 .data          0x00000000001200a8        0x0 binaries/bufinit.o
 .data          0x00000000001200a8        0x0 binaries/cbreg.o
 .data          0x00000000001200a8        0x0 binaries/chprio.o
 .data          0x00000000001200a8        0x4 binaries/clkhandler.o
 .data          0x00000000001200ac        0x0 binaries/clkinit.o
 .data          0x00000000001200ac        0x0 binaries/close.o
 .data          0x00000000001200ac        0x0 binaries/conf.o
 *fill*         0x00000000001200ac       0x14 
 .data.rel      0x00000000001200c0      0x30c binaries/conf.o
                0x00000000001200c0                devtab
 .data          0x00000000001203cc        0x0 binaries/control.o
 .data          0x00000000001203cc        0x4 binaries/create.o
 .data          0x00000000001203d0        0x0 binaries/early_imr.o
 .data          0x00000000001203d0        0x0 binaries/evec.o
 *fill*         0x00000000001203d0       0x10 
 .data.rel.local
                0x00000000001203e0       0x40 binaries/evec.o
                0x00000000001203e0                inames
 .data          0x0000000000120420        0x0 binaries/freebuf.o
 .data          0x0000000000120420        0x0 binaries/freemem.o
 .data          0x0000000000120420        0x0 binaries/getbuf.o
 .data          0x0000000000120420        0x0 binaries/getc.o
 .data          0x0000000000120420        0x0 binaries/getdev.o
 .data          0x0000000000120420        0x0 binaries/getitem.o
 .data          0x0000000000120420        0x0 binaries/getmem.o
 .data          0x0000000000120420        0x0 binaries/getpid.o
 .data          0x0000000000120420        0x0 binaries/getprio.o
 .data          0x0000000000120420        0x0 binaries/getstk.o
 .data          0x0000000000120420        0x0 binaries/gettime.o
 .data          0x0000000000120420        0x0 binaries/getutime.o
 .data          0x0000000000120420        0x4 binaries/i386-stub.o
                0x0000000000120420                gdb_i386vector
 .data.rel      0x0000000000120424        0x4 binaries/i386-stub.o
                0x0000000000120424                stackPtr
 .data          0x0000000000120428        0x0 binaries/init.o
 .data          0x0000000000120428        0x0 binaries/initialize.o
 .data          0x0000000000120428        0x0 binaries/insert.o
 .data          0x0000000000120428        0x0 binaries/insertd.o
 .data          0x0000000000120428        0x0 binaries/ioerr.o
 .data          0x0000000000120428        0x0 binaries/ionull.o
 .data          0x0000000000120428        0x0 binaries/kill.o
 .data          0x0000000000120428        0x0 binaries/kprintf.o
 .data          0x0000000000120428        0x0 binaries/main.o
 .data          0x0000000000120428        0x0 binaries/mark.o
 *fill*         0x0000000000120428       0x18 
 .data          0x0000000000120440       0x48 binaries/meminit.o
                0x0000000000120440                gdt_copy
                0x0000000000120480                bootinfo
                0x0000000000120484                bootsign
 .data          0x0000000000120488        0x0 binaries/mkbufpool.o
 .data          0x0000000000120488        0x2 binaries/newqueue.o
 .data          0x000000000012048a        0x0 binaries/open.o
 .data          0x000000000012048a        0x0 binaries/panic.o
 .data          0x000000000012048a        0x0 binaries/pci.o
 .data          0x000000000012048a        0x0 binaries/platinit.o
 .data          0x000000000012048a        0x0 binaries/ptclear.o
 .data          0x000000000012048a        0x0 binaries/ptcount.o
 .data          0x000000000012048a        0x0 binaries/ptcreate.o
 .data          0x000000000012048a        0x0 binaries/ptdelete.o
 .data          0x000000000012048a        0x0 binaries/ptinit.o
 .data          0x000000000012048a        0x0 binaries/ptrecv.o
 .data          0x000000000012048a        0x0 binaries/ptreset.o
 .data          0x000000000012048a        0x0 binaries/ptsend.o
 .data          0x000000000012048a        0x0 binaries/putc.o
 .data          0x000000000012048a        0x0 binaries/quark_irq.o
 .data          0x000000000012048a        0x0 binaries/quark_pdat.o
 .data          0x000000000012048a        0x0 binaries/queue.o
 .data          0x000000000012048a        0x0 binaries/read.o
 .data          0x000000000012048a        0x0 binaries/ready.o
 .data          0x000000000012048a        0x0 binaries/receive.o
 .data          0x000000000012048a        0x0 binaries/receiveq.o
 .data          0x000000000012048a        0x0 binaries/recvclr.o
 .data          0x000000000012048a        0x0 binaries/recvtime.o
 .data          0x000000000012048a        0x0 binaries/resched.o
 .data          0x000000000012048a        0x0 binaries/resume.o
 .data          0x000000000012048a        0x0 binaries/seek.o
 .data          0x000000000012048a        0x0 binaries/semcount.o
 .data          0x000000000012048a        0x0 binaries/semcreate.o
 .data          0x000000000012048a        0x0 binaries/semdelete.o
 .data          0x000000000012048a        0x0 binaries/semreset.o
 .data          0x000000000012048a        0x0 binaries/sendblk.o
 .data          0x000000000012048a        0x0 binaries/send.o
 .data          0x000000000012048a        0x0 binaries/sendq.o
 .data          0x000000000012048a        0x0 binaries/signal.o
 .data          0x000000000012048a        0x0 binaries/signaln.o
 .data          0x000000000012048a        0x0 binaries/sleep.o
 .data          0x000000000012048a        0x0 binaries/suspend.o
 .data          0x000000000012048a        0x0 binaries/unsleep.o
 .data          0x000000000012048a        0x0 binaries/userret.o
 .data          0x000000000012048a        0x0 binaries/wait.o
 .data          0x000000000012048a        0x0 binaries/wakeup.o
 .data          0x000000000012048a        0x0 binaries/write.o
 .data          0x000000000012048a        0x0 binaries/xdone.o
 .data          0x000000000012048a        0x0 binaries/yield.o
 .data          0x000000000012048a        0x0 binaries/abs.o
 .data          0x000000000012048a        0x0 binaries/atoi.o
 .data          0x000000000012048a        0x0 binaries/atol.o
 .data          0x000000000012048a        0x0 binaries/bzero.o
 .data          0x000000000012048a        0x0 binaries/ctype_.o
 .data          0x000000000012048a        0x0 binaries/doprnt.o
 *fill*         0x000000000012048a       0x16 
 .data          0x00000000001204a0       0x80 binaries/doscan.o
                0x00000000001204a0                _sctab
 .data          0x0000000000120520        0x0 binaries/fdoprnt.o
 .data          0x0000000000120520        0x0 binaries/fgetc.o
 .data          0x0000000000120520        0x0 binaries/fgets.o
 .data          0x0000000000120520        0x0 binaries/fprintf.o
 .data          0x0000000000120520        0x0 binaries/fputc.o
 .data          0x0000000000120520        0x0 binaries/fputs.o
 .data          0x0000000000120520        0x0 binaries/fscanf.o
 .data          0x0000000000120520        0x0 binaries/getchar.o
 .data          0x0000000000120520        0x0 binaries/labs.o
 .data          0x0000000000120520        0x0 binaries/memchr.o
 .data          0x0000000000120520        0x0 binaries/memcmp.o
 .data          0x0000000000120520        0x0 binaries/memcpy.o
 .data          0x0000000000120520        0x0 binaries/memset.o
 .data          0x0000000000120520        0x0 binaries/printf.o
 .data          0x0000000000120520        0x0 binaries/putchar.o
 .data          0x0000000000120520        0x0 binaries/qsort.o
 .data          0x0000000000120520        0x4 binaries/rand.o
 .data          0x0000000000120524        0x0 binaries/sprintf.o
 .data          0x0000000000120524        0x0 binaries/sscanf.o
 .data          0x0000000000120524        0x0 binaries/strchr.o
 .data          0x0000000000120524        0x0 binaries/strcmp.o
 .data          0x0000000000120524        0x0 binaries/strcpy.o
 .data          0x0000000000120524        0x0 binaries/strlen.o
 .data          0x0000000000120524        0x0 binaries/strncat.o
 .data          0x0000000000120524        0x0 binaries/strncmp.o
 .data          0x0000000000120524        0x0 binaries/strncpy.o
 .data          0x0000000000120524        0x0 binaries/strnlen.o
 .data          0x0000000000120524        0x0 binaries/strrchr.o
 .data          0x0000000000120524        0x0 binaries/strstr.o
 .data          0x0000000000120524        0x0 binaries/ttycontrol.o
 .data          0x0000000000120524        0x0 binaries/ttygetc.o
 .data          0x0000000000120524        0x0 binaries/ttyhandle_in.o
 .data          0x0000000000120524        0x0 binaries/ttyhandle_out.o
 .data          0x0000000000120524        0x0 binaries/ttyhandler.o
 .data          0x0000000000120524        0x0 binaries/ttyinit.o
 .data          0x0000000000120524        0x0 binaries/ttykickout.o
 .data          0x0000000000120524        0x0 binaries/ttyputc.o
 .data          0x0000000000120524        0x0 binaries/ttyread.o
 .data          0x0000000000120524        0x0 binaries/ttywrite.o
 .data          0x0000000000120524        0x0 binaries/mount.o
 .data          0x0000000000120524        0x0 binaries/naminit.o
 .data          0x0000000000120524        0x0 binaries/nammap.o
 .data          0x0000000000120524        0x0 binaries/namopen.o
 .data          0x0000000000120524        0x0 binaries/colon2mac.o
 .data          0x0000000000120524        0x0 binaries/ethcontrol.o
 .data          0x0000000000120524        0x0 binaries/ethhandler.o
 .data          0x0000000000120524        0x0 binaries/ethinit.o
 .data          0x0000000000120524        0x0 binaries/ethmcast.o
 .data          0x0000000000120524        0x0 binaries/ethread.o
 .data          0x0000000000120524        0x0 binaries/ethwrite.o
 .data          0x0000000000120524        0x0 binaries/rdsbufalloc.o
 .data          0x0000000000120524        0x0 binaries/rdsclose.o
 .data          0x0000000000120524        0x0 binaries/rdscomm.o
 .data          0x0000000000120524        0x0 binaries/rdscontrol.o
 .data          0x0000000000120524        0x0 binaries/rdsinit.o
 .data          0x0000000000120524        0x0 binaries/rdsopen.o
 .data          0x0000000000120524        0x0 binaries/rdsprocess.o
 .data          0x0000000000120524        0x0 binaries/rdsread.o
 .data          0x0000000000120524        0x0 binaries/rdswrite.o
 .data          0x0000000000120524        0x0 binaries/ramclose.o
 .data          0x0000000000120524        0x0 binaries/raminit.o
 .data          0x0000000000120524        0x0 binaries/ramopen.o
 .data          0x0000000000120524        0x0 binaries/ramread.o
 .data          0x0000000000120524        0x0 binaries/ramwrite.o
 .data          0x0000000000120524        0x0 binaries/lfdballoc.o
 .data          0x0000000000120524        0x0 binaries/lfdbfree.o
 .data          0x0000000000120524        0x0 binaries/lfflush.o
 .data          0x0000000000120524        0x0 binaries/lfgetmode.o
 .data          0x0000000000120524        0x0 binaries/lfiballoc.o
 .data          0x0000000000120524        0x0 binaries/lfibclear.o
 .data          0x0000000000120524        0x0 binaries/lfibget.o
 .data          0x0000000000120524        0x0 binaries/lfibput.o
 .data          0x0000000000120524        0x0 binaries/lflclose.o
 .data          0x0000000000120524        0x0 binaries/lflcontrol.o
 .data          0x0000000000120524        0x0 binaries/lflgetc.o
 .data          0x0000000000120524        0x0 binaries/lflinit.o
 .data          0x0000000000120524        0x0 binaries/lflputc.o
 .data          0x0000000000120524        0x0 binaries/lflread.o
 .data          0x0000000000120524        0x0 binaries/lflseek.o
 .data          0x0000000000120524        0x0 binaries/lflwrite.o
 .data          0x0000000000120524        0x0 binaries/lfsckfmt.o
 .data          0x0000000000120524        0x0 binaries/lfscreate.o
 .data          0x0000000000120524        0x0 binaries/lfsetup.o
 .data          0x0000000000120524        0x0 binaries/lfsinit.o
 .data          0x0000000000120524        0x0 binaries/lfsopen.o
 .data          0x0000000000120524        0x0 binaries/lftruncate.o
 .data          0x0000000000120524        0x0 binaries/rflclose.o
 .data          0x0000000000120524        0x0 binaries/rflgetc.o
 .data          0x0000000000120524        0x0 binaries/rflinit.o
 .data          0x0000000000120524        0x0 binaries/rflputc.o
 .data          0x0000000000120524        0x0 binaries/rflread.o
 .data          0x0000000000120524        0x0 binaries/rflseek.o
 .data          0x0000000000120524        0x0 binaries/rflwrite.o
 .data          0x0000000000120524        0x0 binaries/rfscomm.o
 .data          0x0000000000120524        0x0 binaries/rfscontrol.o
 .data          0x0000000000120524        0x0 binaries/rfsgetmode.o
 .data          0x0000000000120524        0x0 binaries/rfsinit.o
 .data          0x0000000000120524        0x0 binaries/rfsndmsg.o
 .data          0x0000000000120524        0x0 binaries/rfsopen.o
 .data          0x0000000000120524        0x0 binaries/arp.o
 .data          0x0000000000120524        0x0 binaries/dhcp.o
 .data          0x0000000000120524        0x0 binaries/dot2ip.o
 .data          0x0000000000120524        0x0 binaries/hexdump.o
 .data          0x0000000000120524        0x4 binaries/icmp.o
 .data          0x0000000000120528        0x0 binaries/ip.o
 .data          0x0000000000120528        0x0 binaries/net.o
 .data          0x0000000000120528        0x0 binaries/netstart.o
 .data          0x0000000000120528        0x0 binaries/pdump.o
 .data          0x0000000000120528        0x0 binaries/tftp.o
 .data          0x0000000000120528        0x4 binaries/udp.o
 .data          0x000000000012052c        0x0 binaries/addargs.o
 .data          0x000000000012052c        0x0 binaries/lexan.o
 .data          0x000000000012052c        0x4 binaries/shell.o
                0x000000000012052c                ncmd
 *fill*         0x0000000000120530       0x10 
 .data.rel.ro   0x0000000000120540       0xfc binaries/shell.o
                0x0000000000120540                cmdtab
 .data          0x000000000012063c        0x0 binaries/xsh_argecho.o
 .data          0x000000000012063c        0x0 binaries/xsh_arp.o
 .data          0x000000000012063c        0x0 binaries/xsh_cat.o
 .data          0x000000000012063c        0x0 binaries/xsh_clear.o
 .data          0x000000000012063c        0x0 binaries/xsh_date.o
 .data          0x000000000012063c        0x0 binaries/xsh_devdump.o
 .data          0x000000000012063c        0x0 binaries/xsh_echo.o
 .data          0x000000000012063c        0x0 binaries/xsh_exit.o
 .data          0x000000000012063c        0x0 binaries/xsh_help.o
 .data          0x000000000012063c        0x0 binaries/xsh_ipaddr.o
 .data          0x000000000012063c        0x0 binaries/xsh_kill.o
 .data          0x000000000012063c        0x0 binaries/xsh_memdump.o
 .data          0x000000000012063c        0x0 binaries/xsh_memstat.o
 .data          0x000000000012063c        0x0 binaries/xsh_ping.o
 *fill*         0x000000000012063c        0x4 
 .data          0x0000000000120640       0x20 binaries/xsh_ps.o
 .data          0x0000000000120660        0x0 binaries/xsh_sleep.o
 .data          0x0000000000120660        0x0 binaries/xsh_udpdump.o
 .data          0x0000000000120660        0x0 binaries/xsh_udpecho.o
 .data          0x0000000000120660        0x0 binaries/xsh_udpeserver.o
 .data          0x0000000000120660        0x0 binaries/xsh_uptime.o
 .data          0x0000000000120660        0x0 binaries/clkdisp.o
 .data          0x0000000000120660        0x0 binaries/ctxsw.o
 .data          0x0000000000120660        0x0 binaries/intr.o
 .data          0x0000000000120660        0x0 binaries/ttydispatch.o
 .data          0x0000000000120660        0x0 binaries/ethdispatch.o
                0x0000000000120660                edata = ABSOLUTE (.)
                0x0000000000121000                . = ALIGN (0x1000)
 *fill*         0x0000000000120660      0x9a0 

.got            0x0000000000121000       0x58
 .got           0x0000000000121000       0x58 binaries/start.o

.got.plt        0x0000000000121058        0xc
 .got.plt       0x0000000000121058        0xc binaries/start.o
                0x0000000000121058                _GLOBAL_OFFSET_TABLE_

.igot.plt       0x0000000000121064        0x0
 .igot.plt      0x0000000000121064        0x0 binaries/start.o

.bss            0x0000000000121080    0x23f80
                0x0000000000121080                bss = ABSOLUTE (.)
 *(.bss .bss.*)
 .bss           0x0000000000121080        0x0 binaries/start.o
 .bss           0x0000000000121080        0x0 binaries/ascdate.o
 .bss           0x0000000000121080        0x0 binaries/bufinit.o
 .bss           0x0000000000121080        0x0 binaries/cbreg.o
 .bss           0x0000000000121080        0x0 binaries/chprio.o
 .bss           0x0000000000121080        0x0 binaries/clkhandler.o
 .bss           0x0000000000121080        0x4 binaries/clkinit.o
                0x0000000000121080                ctr1000
 .bss           0x0000000000121084        0x0 binaries/close.o
 .bss           0x0000000000121084        0x0 binaries/conf.o
 .bss           0x0000000000121084        0x0 binaries/control.o
 .bss           0x0000000000121084        0x0 binaries/create.o
 .bss           0x0000000000121084        0x0 binaries/early_imr.o
 .bss           0x0000000000121084        0x0 binaries/evec.o
 .bss           0x0000000000121084        0x0 binaries/freebuf.o
 .bss           0x0000000000121084        0x0 binaries/freemem.o
 .bss           0x0000000000121084        0x0 binaries/getbuf.o
 .bss           0x0000000000121084        0x0 binaries/getc.o
 .bss           0x0000000000121084        0x0 binaries/getdev.o
 .bss           0x0000000000121084        0x0 binaries/getitem.o
 .bss           0x0000000000121084        0x0 binaries/getmem.o
 .bss           0x0000000000121084        0x0 binaries/getpid.o
 .bss           0x0000000000121084        0x0 binaries/getprio.o
 .bss           0x0000000000121084        0x0 binaries/getstk.o
 .bss           0x0000000000121084        0x0 binaries/gettime.o
 .bss           0x0000000000121084        0x0 binaries/getutime.o
 *fill*         0x0000000000121084       0x1c 
 .bss           0x00000000001210a0      0x351 binaries/i386-stub.o
 .bss           0x00000000001213f1        0x0 binaries/init.o
 .bss           0x00000000001213f1        0x0 binaries/initialize.o
 .bss           0x00000000001213f1        0x0 binaries/insert.o
 .bss           0x00000000001213f1        0x0 binaries/insertd.o
 .bss           0x00000000001213f1        0x0 binaries/ioerr.o
 .bss           0x00000000001213f1        0x0 binaries/ionull.o
 .bss           0x00000000001213f1        0x0 binaries/kill.o
 .bss           0x00000000001213f1        0x0 binaries/kprintf.o
 .bss           0x00000000001213f1        0x0 binaries/main.o
 .bss           0x00000000001213f1        0x0 binaries/mark.o
 .bss           0x00000000001213f1        0x0 binaries/meminit.o
 .bss           0x00000000001213f1        0x0 binaries/mkbufpool.o
 .bss           0x00000000001213f1        0x0 binaries/newqueue.o
 .bss           0x00000000001213f1        0x0 binaries/open.o
 .bss           0x00000000001213f1        0x0 binaries/panic.o
 .bss           0x00000000001213f1        0x0 binaries/pci.o
 .bss           0x00000000001213f1        0x0 binaries/platinit.o
 .bss           0x00000000001213f1        0x0 binaries/ptclear.o
 .bss           0x00000000001213f1        0x0 binaries/ptcount.o
 .bss           0x00000000001213f1        0x0 binaries/ptcreate.o
 .bss           0x00000000001213f1        0x0 binaries/ptdelete.o
 .bss           0x00000000001213f1        0x0 binaries/ptinit.o
 .bss           0x00000000001213f1        0x0 binaries/ptrecv.o
 .bss           0x00000000001213f1        0x0 binaries/ptreset.o
 .bss           0x00000000001213f1        0x0 binaries/ptsend.o
 .bss           0x00000000001213f1        0x0 binaries/putc.o
 .bss           0x00000000001213f1        0x0 binaries/quark_irq.o
 .bss           0x00000000001213f1        0x0 binaries/quark_pdat.o
 .bss           0x00000000001213f1        0x0 binaries/queue.o
 .bss           0x00000000001213f1        0x0 binaries/read.o
 .bss           0x00000000001213f1        0x0 binaries/ready.o
 .bss           0x00000000001213f1        0x0 binaries/receive.o
 .bss           0x00000000001213f1        0x0 binaries/receiveq.o
 .bss           0x00000000001213f1        0x0 binaries/recvclr.o
 .bss           0x00000000001213f1        0x0 binaries/recvtime.o
 .bss           0x00000000001213f1        0x0 binaries/resched.o
 .bss           0x00000000001213f1        0x0 binaries/resume.o
 .bss           0x00000000001213f1        0x0 binaries/seek.o
 .bss           0x00000000001213f1        0x0 binaries/semcount.o
 *fill*         0x00000000001213f1        0x3 
 .bss           0x00000000001213f4        0x4 binaries/semcreate.o
 .bss           0x00000000001213f8        0x0 binaries/semdelete.o
 .bss           0x00000000001213f8        0x0 binaries/semreset.o
 .bss           0x00000000001213f8        0x0 binaries/sendblk.o
 .bss           0x00000000001213f8        0x0 binaries/send.o
 .bss           0x00000000001213f8        0x0 binaries/sendq.o
 .bss           0x00000000001213f8        0x0 binaries/signal.o
 .bss           0x00000000001213f8        0x0 binaries/signaln.o
 .bss           0x00000000001213f8        0x0 binaries/sleep.o
 .bss           0x00000000001213f8        0x0 binaries/suspend.o
 .bss           0x00000000001213f8        0x0 binaries/unsleep.o
 .bss           0x00000000001213f8        0x0 binaries/userret.o
 .bss           0x00000000001213f8        0x0 binaries/wait.o
 .bss           0x00000000001213f8        0x0 binaries/wakeup.o
 .bss           0x00000000001213f8        0x0 binaries/write.o
 .bss           0x00000000001213f8        0x0 binaries/xdone.o
 .bss           0x00000000001213f8        0x0 binaries/yield.o
 .bss           0x00000000001213f8        0x0 binaries/abs.o
 .bss           0x00000000001213f8        0x0 binaries/atoi.o
 .bss           0x00000000001213f8        0x0 binaries/atol.o
 .bss           0x00000000001213f8        0x0 binaries/bzero.o
 .bss           0x00000000001213f8        0x0 binaries/ctype_.o
 .bss           0x00000000001213f8        0x0 binaries/doprnt.o
 .bss           0x00000000001213f8        0x0 binaries/doscan.o
 .bss           0x00000000001213f8        0x0 binaries/fdoprnt.o
 .bss           0x00000000001213f8        0x0 binaries/fgetc.o
 .bss           0x00000000001213f8        0x0 binaries/fgets.o
 .bss           0x00000000001213f8        0x0 binaries/fprintf.o
 .bss           0x00000000001213f8        0x0 binaries/fputc.o
 .bss           0x00000000001213f8        0x0 binaries/fputs.o
 .bss           0x00000000001213f8        0x0 binaries/fscanf.o
 .bss           0x00000000001213f8        0x0 binaries/getchar.o
 .bss           0x00000000001213f8        0x0 binaries/labs.o
 .bss           0x00000000001213f8        0x0 binaries/memchr.o
 .bss           0x00000000001213f8        0x0 binaries/memcmp.o
 .bss           0x00000000001213f8        0x0 binaries/memcpy.o
 .bss           0x00000000001213f8        0x0 binaries/memset.o
 .bss           0x00000000001213f8        0x0 binaries/printf.o
 .bss           0x00000000001213f8        0x0 binaries/putchar.o
 .bss           0x00000000001213f8        0x8 binaries/qsort.o
 .bss           0x0000000000121400        0x0 binaries/rand.o
 .bss           0x0000000000121400        0x0 binaries/sprintf.o
 .bss           0x0000000000121400        0x0 binaries/sscanf.o
 .bss           0x0000000000121400        0x0 binaries/strchr.o
 .bss           0x0000000000121400        0x0 binaries/strcmp.o
 .bss           0x0000000000121400        0x0 binaries/strcpy.o
 .bss           0x0000000000121400        0x0 binaries/strlen.o
 .bss           0x0000000000121400        0x0 binaries/strncat.o
 .bss           0x0000000000121400        0x0 binaries/strncmp.o
 .bss           0x0000000000121400        0x0 binaries/strncpy.o
 .bss           0x0000000000121400        0x0 binaries/strnlen.o
 .bss           0x0000000000121400        0x0 binaries/strrchr.o
 .bss           0x0000000000121400        0x0 binaries/strstr.o
 .bss           0x0000000000121400        0x0 binaries/ttycontrol.o
 .bss           0x0000000000121400        0x0 binaries/ttygetc.o
 .bss           0x0000000000121400        0x0 binaries/ttyhandle_in.o
 .bss           0x0000000000121400        0x0 binaries/ttyhandle_out.o
 .bss           0x0000000000121400        0x0 binaries/ttyhandler.o
 .bss           0x0000000000121400        0x0 binaries/ttyinit.o
 .bss           0x0000000000121400        0x0 binaries/ttykickout.o
 .bss           0x0000000000121400        0x0 binaries/ttyputc.o
 .bss           0x0000000000121400        0x0 binaries/ttyread.o
 .bss           0x0000000000121400        0x0 binaries/ttywrite.o
 .bss           0x0000000000121400        0x0 binaries/mount.o
 .bss           0x0000000000121400        0x0 binaries/naminit.o
 .bss           0x0000000000121400        0x0 binaries/nammap.o
 .bss           0x0000000000121400        0x0 binaries/namopen.o
 .bss           0x0000000000121400        0x0 binaries/colon2mac.o
 .bss           0x0000000000121400        0x0 binaries/ethcontrol.o
 .bss           0x0000000000121400        0x0 binaries/ethhandler.o
 .bss           0x0000000000121400        0x0 binaries/ethinit.o
 .bss           0x0000000000121400        0x0 binaries/ethmcast.o
 .bss           0x0000000000121400        0x0 binaries/ethread.o
 .bss           0x0000000000121400        0x0 binaries/ethwrite.o
 .bss           0x0000000000121400        0x0 binaries/rdsbufalloc.o
 .bss           0x0000000000121400        0x0 binaries/rdsclose.o
 .bss           0x0000000000121400        0x0 binaries/rdscomm.o
 .bss           0x0000000000121400        0x0 binaries/rdscontrol.o
 .bss           0x0000000000121400        0x0 binaries/rdsinit.o
 .bss           0x0000000000121400        0x0 binaries/rdsopen.o
 .bss           0x0000000000121400        0x0 binaries/rdsprocess.o
 .bss           0x0000000000121400        0x0 binaries/rdsread.o
 .bss           0x0000000000121400        0x0 binaries/rdswrite.o
 .bss           0x0000000000121400        0x0 binaries/ramclose.o
 .bss           0x0000000000121400        0x0 binaries/raminit.o
 .bss           0x0000000000121400        0x0 binaries/ramopen.o
 .bss           0x0000000000121400        0x0 binaries/ramread.o
 .bss           0x0000000000121400        0x0 binaries/ramwrite.o
 .bss           0x0000000000121400        0x0 binaries/lfdballoc.o
 .bss           0x0000000000121400        0x0 binaries/lfdbfree.o
 .bss           0x0000000000121400        0x0 binaries/lfflush.o
 .bss           0x0000000000121400        0x0 binaries/lfgetmode.o
 .bss           0x0000000000121400        0x0 binaries/lfiballoc.o
 .bss           0x0000000000121400        0x0 binaries/lfibclear.o
 .bss           0x0000000000121400        0x0 binaries/lfibget.o
 .bss           0x0000000000121400        0x0 binaries/lfibput.o
 .bss           0x0000000000121400        0x0 binaries/lflclose.o
 .bss           0x0000000000121400        0x0 binaries/lflcontrol.o
 .bss           0x0000000000121400        0x0 binaries/lflgetc.o
 .bss           0x0000000000121400        0x0 binaries/lflinit.o
 .bss           0x0000000000121400        0x0 binaries/lflputc.o
 .bss           0x0000000000121400        0x0 binaries/lflread.o
 .bss           0x0000000000121400        0x0 binaries/lflseek.o
 .bss           0x0000000000121400        0x0 binaries/lflwrite.o
 .bss           0x0000000000121400        0x0 binaries/lfsckfmt.o
 .bss           0x0000000000121400        0x0 binaries/lfscreate.o
 .bss           0x0000000000121400        0x0 binaries/lfsetup.o
 .bss           0x0000000000121400        0x0 binaries/lfsinit.o
 .bss           0x0000000000121400        0x0 binaries/lfsopen.o
 .bss           0x0000000000121400        0x0 binaries/lftruncate.o
 .bss           0x0000000000121400        0x0 binaries/rflclose.o
 .bss           0x0000000000121400        0x0 binaries/rflgetc.o
 .bss           0x0000000000121400        0x0 binaries/rflinit.o
 .bss           0x0000000000121400        0x0 binaries/rflputc.o
 .bss           0x0000000000121400        0x0 binaries/rflread.o
 .bss           0x0000000000121400        0x0 binaries/rflseek.o
 .bss           0x0000000000121400        0x0 binaries/rflwrite.o
 .bss           0x0000000000121400        0x0 binaries/rfscomm.o
 .bss           0x0000000000121400        0x0 binaries/rfscontrol.o
 .bss           0x0000000000121400        0x0 binaries/rfsgetmode.o
 .bss           0x0000000000121400        0x0 binaries/rfsinit.o
 .bss           0x0000000000121400        0x0 binaries/rfsndmsg.o
 .bss           0x0000000000121400        0x0 binaries/rfsopen.o
 .bss           0x0000000000121400        0x0 binaries/arp.o
 .bss           0x0000000000121400        0x0 binaries/dhcp.o
 .bss           0x0000000000121400        0x0 binaries/dot2ip.o
 .bss           0x0000000000121400        0x0 binaries/hexdump.o
 .bss           0x0000000000121400        0x0 binaries/icmp.o
 .bss           0x0000000000121400        0x0 binaries/ip.o
 .bss           0x0000000000121400        0x0 binaries/net.o
 .bss           0x0000000000121400        0x0 binaries/netstart.o
 .bss           0x0000000000121400        0x0 binaries/pdump.o
 .bss           0x0000000000121400        0x0 binaries/tftp.o
 .bss           0x0000000000121400        0x0 binaries/udp.o
 .bss           0x0000000000121400        0x0 binaries/addargs.o
 .bss           0x0000000000121400        0x0 binaries/lexan.o
 .bss           0x0000000000121400        0x0 binaries/shell.o
 .bss           0x0000000000121400        0x0 binaries/xsh_argecho.o
 .bss           0x0000000000121400        0x0 binaries/xsh_arp.o
 .bss           0x0000000000121400        0x0 binaries/xsh_cat.o
 .bss           0x0000000000121400        0x0 binaries/xsh_clear.o
 .bss           0x0000000000121400        0x0 binaries/xsh_date.o
 .bss           0x0000000000121400        0x0 binaries/xsh_devdump.o
 .bss           0x0000000000121400        0x0 binaries/xsh_echo.o
 .bss           0x0000000000121400        0x0 binaries/xsh_exit.o
 .bss           0x0000000000121400        0x0 binaries/xsh_help.o
 .bss           0x0000000000121400        0x0 binaries/xsh_ipaddr.o
 .bss           0x0000000000121400        0x0 binaries/xsh_kill.o
 .bss           0x0000000000121400        0x0 binaries/xsh_memdump.o
 .bss           0x0000000000121400        0x0 binaries/xsh_memstat.o
 .bss           0x0000000000121400        0x4 binaries/xsh_ping.o
 .bss           0x0000000000121404        0x0 binaries/xsh_ps.o
 .bss           0x0000000000121404        0x0 binaries/xsh_sleep.o
 .bss           0x0000000000121404        0x0 binaries/xsh_udpdump.o
 .bss           0x0000000000121404        0x0 binaries/xsh_udpecho.o
 .bss           0x0000000000121404        0x0 binaries/xsh_udpeserver.o
 .bss           0x0000000000121404        0x0 binaries/xsh_uptime.o
 .bss           0x0000000000121404        0x0 binaries/clkdisp.o
 .bss           0x0000000000121404        0x0 binaries/ctxsw.o
 .bss           0x0000000000121404        0x0 binaries/intr.o
 .bss           0x0000000000121404        0x0 binaries/ttydispatch.o
 .bss           0x0000000000121404        0x0 binaries/ethdispatch.o
 *(COMMON)
 *fill*         0x0000000000121404       0x1c 
 COMMON         0x0000000000121420       0xf4 binaries/bufinit.o
                0x0000000000121420                buftab
                0x0000000000121510                nbpools
 COMMON         0x0000000000121514        0xc binaries/clkinit.o
                0x0000000000121514                sleepq
                0x0000000000121518                preempt
                0x000000000012151c                clktime
 COMMON         0x0000000000121520        0x2 binaries/evec.o
                0x0000000000121520                girmask
 *fill*         0x0000000000121522       0x1e 
 COMMON         0x0000000000121540     0x2774 binaries/i386-stub.o
                0x0000000000121540                remote_debug
                0x0000000000121560                registers
                0x00000000001215a0                remcomStack
                0x0000000000123cb0                gdb_i386errcode
 *fill*         0x0000000000123cb4        0xc 
 COMMON         0x0000000000123cc0     0x2bf8 binaries/initialize.o
                0x0000000000123cc0                currpid
                0x0000000000123ce0                proctab
                0x00000000001263f0                sendWaitcount
                0x00000000001263f4                prcount
                0x0000000000126400                semtab
                0x00000000001268b0                memlist
 *fill*         0x00000000001268b8        0x8 
 COMMON         0x00000000001268c0       0x58 binaries/mark.o
                0x00000000001268c0                marks
                0x0000000000126910                nmarks
                0x0000000000126914                mkmutex
 COMMON         0x0000000000126918        0x8 binaries/meminit.o
                0x0000000000126918                minheap
                0x000000000012691c                maxheap
 COMMON         0x0000000000126920      0x2d8 binaries/ptinit.o
                0x0000000000126920                porttab
                0x0000000000126bf0                ptnextid
                0x0000000000126bf4                ptfree
 *fill*         0x0000000000126bf8        0x8 
 COMMON         0x0000000000126c00      0xfc0 binaries/queue.o
                0x0000000000126c00                queuetab
 COMMON         0x0000000000127bc0        0x2 binaries/ready.o
                0x0000000000127bc0                readylist
 *fill*         0x0000000000127bc2        0x2 
 COMMON         0x0000000000127bc4        0x8 binaries/resched.o
                0x0000000000127bc4                Defer
 *fill*         0x0000000000127bcc       0x14 
 COMMON         0x0000000000127be0      0x10c binaries/ttyinit.o
                0x0000000000127be0                ttytab
 *fill*         0x0000000000127cec       0x14 
 COMMON         0x0000000000127d00     0x19c0 binaries/naminit.o
                0x0000000000127d00                nnames
                0x0000000000127d20                nametab
 COMMON         0x00000000001296c0      0x138 binaries/ethinit.o
                0x00000000001296c0                ethertab
 *fill*         0x00000000001297f8        0x8 
 COMMON         0x0000000000129800       0x8c binaries/rdsinit.o
                0x0000000000129800                rdstab
 *fill*         0x000000000012988c       0x14 
 COMMON         0x00000000001298a0    0x19000 binaries/raminit.o
                0x00000000001298a0                Ram
 COMMON         0x00000000001428a0      0xf00 binaries/lflinit.o
                0x00000000001428a0                lfltab
 COMMON         0x00000000001437a0      0x20c binaries/lfsinit.o
                0x00000000001437a0                Lf_data
 *fill*         0x00000000001439ac       0x14 
 COMMON         0x00000000001439c0      0x5a0 binaries/rflinit.o
                0x00000000001439c0                rfltab
 COMMON         0x0000000000143f60       0x18 binaries/rfsinit.o
                0x0000000000143f60                Rf_data
 *fill*         0x0000000000143f78        0x8 
 COMMON         0x0000000000143f80      0x140 binaries/arp.o
                0x0000000000143f80                arpcache
 COMMON         0x00000000001440c0      0x230 binaries/icmp.o
                0x00000000001440c0                icmptab
 *fill*         0x00000000001442f0       0x10 
 COMMON         0x0000000000144300       0x2c binaries/ip.o
                0x0000000000144300                ipoqueue
 *fill*         0x000000000014432c       0x14 
 COMMON         0x0000000000144340       0xc8 binaries/net.o
                0x0000000000144340                netbufpool
                0x0000000000144360                NetData
 *fill*         0x0000000000144408       0x18 
 COMMON         0x0000000000144420      0x168 binaries/udp.o
                0x0000000000144420                udptab
                0x0000000000144588                ebss = ABSOLUTE (.)
                0x0000000000145000                . = ALIGN (0x1000)
 *fill*         0x0000000000144588      0xa78 
 */()
                0x0000000000145000                end = ABSOLUTE (.)
                0x0000000000145000                _end = ABSOLUTE (.)
                0x0000000000145000                . = ALIGN (0x1000)
LOAD binaries/start.o
LOAD binaries/ascdate.o
LOAD binaries/bufinit.o
LOAD binaries/cbreg.o
LOAD binaries/chprio.o
LOAD binaries/clkhandler.o
LOAD binaries/clkinit.o
LOAD binaries/close.o
LOAD binaries/conf.o
LOAD binaries/control.o
LOAD binaries/create.o
LOAD binaries/early_imr.o
LOAD binaries/evec.o
LOAD binaries/freebuf.o
LOAD binaries/freemem.o
LOAD binaries/getbuf.o
LOAD binaries/getc.o
LOAD binaries/getdev.o
LOAD binaries/getitem.o
LOAD binaries/getmem.o
LOAD binaries/getpid.o
LOAD binaries/getprio.o
LOAD binaries/getstk.o
LOAD binaries/gettime.o
LOAD binaries/getutime.o
LOAD binaries/i386-stub.o
LOAD binaries/init.o
LOAD binaries/initialize.o
LOAD binaries/insert.o
LOAD binaries/insertd.o
LOAD binaries/ioerr.o
LOAD binaries/ionull.o
LOAD binaries/kill.o
LOAD binaries/kprintf.o
LOAD binaries/main.o
LOAD binaries/mark.o
LOAD binaries/meminit.o
LOAD binaries/mkbufpool.o
LOAD binaries/newqueue.o
LOAD binaries/open.o
LOAD binaries/panic.o
LOAD binaries/pci.o
LOAD binaries/platinit.o
LOAD binaries/ptclear.o
LOAD binaries/ptcount.o
LOAD binaries/ptcreate.o
LOAD binaries/ptdelete.o
LOAD binaries/ptinit.o
LOAD binaries/ptrecv.o
LOAD binaries/ptreset.o
LOAD binaries/ptsend.o
LOAD binaries/putc.o
LOAD binaries/quark_irq.o
LOAD binaries/quark_pdat.o
LOAD binaries/queue.o
LOAD binaries/read.o
LOAD binaries/ready.o
LOAD binaries/receive.o
LOAD binaries/receiveq.o
LOAD binaries/recvclr.o
LOAD binaries/recvtime.o
LOAD binaries/resched.o
LOAD binaries/resume.o
LOAD binaries/seek.o
LOAD binaries/semcount.o
LOAD binaries/semcreate.o
LOAD binaries/semdelete.o
LOAD binaries/semreset.o
LOAD binaries/sendblk.o
LOAD binaries/send.o
LOAD binaries/sendq.o
LOAD binaries/signal.o
LOAD binaries/signaln.o
LOAD binaries/sleep.o
LOAD binaries/suspend.o
LOAD binaries/unsleep.o
LOAD binaries/userret.o
LOAD binaries/wait.o
LOAD binaries/wakeup.o
LOAD binaries/write.o
LOAD binaries/xdone.o
LOAD binaries/yield.o
LOAD binaries/abs.o
LOAD binaries/atoi.o
LOAD binaries/atol.o
LOAD binaries/bzero.o
LOAD binaries/ctype_.o
LOAD binaries/doprnt.o
LOAD binaries/doscan.o
LOAD binaries/fdoprnt.o
LOAD binaries/fgetc.o
LOAD binaries/fgets.o
LOAD binaries/fprintf.o
LOAD binaries/fputc.o
LOAD binaries/fputs.o
LOAD binaries/fscanf.o
LOAD binaries/getchar.o
LOAD binaries/labs.o
LOAD binaries/memchr.o
LOAD binaries/memcmp.o
LOAD binaries/memcpy.o
LOAD binaries/memset.o
LOAD binaries/printf.o
LOAD binaries/putchar.o
LOAD binaries/qsort.o
LOAD binaries/rand.o
LOAD binaries/sprintf.o
LOAD binaries/sscanf.o
LOAD binaries/strchr.o
LOAD binaries/strcmp.o
LOAD binaries/strcpy.o
LOAD binaries/strlen.o
LOAD binaries/strncat.o
LOAD binaries/strncmp.o
LOAD binaries/strncpy.o
LOAD binaries/strnlen.o
LOAD binaries/strrchr.o
LOAD binaries/strstr.o
LOAD binaries/ttycontrol.o
LOAD binaries/ttygetc.o
LOAD binaries/ttyhandle_in.o
LOAD binaries/ttyhandle_out.o
LOAD binaries/ttyhandler.o
LOAD binaries/ttyinit.o
LOAD binaries/ttykickout.o
LOAD binaries/ttyputc.o
LOAD binaries/ttyread.o
LOAD binaries/ttywrite.o
LOAD binaries/mount.o
LOAD binaries/naminit.o
LOAD binaries/nammap.o
LOAD binaries/namopen.o
LOAD binaries/colon2mac.o
LOAD binaries/ethcontrol.o
LOAD binaries/ethhandler.o
LOAD binaries/ethinit.o
LOAD binaries/ethmcast.o
LOAD binaries/ethread.o
LOAD binaries/ethwrite.o
LOAD binaries/rdsbufalloc.o
LOAD binaries/rdsclose.o
LOAD binaries/rdscomm.o
LOAD binaries/rdscontrol.o
LOAD binaries/rdsinit.o
LOAD binaries/rdsopen.o
LOAD binaries/rdsprocess.o
LOAD binaries/rdsread.o
LOAD binaries/rdswrite.o
LOAD binaries/ramclose.o
LOAD binaries/raminit.o
LOAD binaries/ramopen.o
LOAD binaries/ramread.o
LOAD binaries/ramwrite.o
LOAD binaries/lfdballoc.o
LOAD binaries/lfdbfree.o
LOAD binaries/lfflush.o
LOAD binaries/lfgetmode.o
LOAD binaries/lfiballoc.o
LOAD binaries/lfibclear.o
LOAD binaries/lfibget.o
LOAD binaries/lfibput.o
LOAD binaries/lflclose.o
LOAD binaries/lflcontrol.o
LOAD binaries/lflgetc.o
LOAD binaries/lflinit.o
LOAD binaries/lflputc.o
LOAD binaries/lflread.o
LOAD binaries/lflseek.o
LOAD binaries/lflwrite.o
LOAD binaries/lfsckfmt.o
LOAD binaries/lfscreate.o
LOAD binaries/lfsetup.o
LOAD binaries/lfsinit.o
LOAD binaries/lfsopen.o
LOAD binaries/lftruncate.o
LOAD binaries/rflclose.o
LOAD binaries/rflgetc.o
LOAD binaries/rflinit.o
LOAD binaries/rflputc.o
LOAD binaries/rflread.o
LOAD binaries/rflseek.o
LOAD binaries/rflwrite.o
LOAD binaries/rfscomm.o
LOAD binaries/rfscontrol.o
LOAD binaries/rfsgetmode.o
LOAD binaries/rfsinit.o
LOAD binaries/rfsndmsg.o
LOAD binaries/rfsopen.o
LOAD binaries/arp.o
LOAD binaries/dhcp.o
LOAD binaries/dot2ip.o
LOAD binaries/hexdump.o
LOAD binaries/icmp.o
LOAD binaries/ip.o
LOAD binaries/net.o
LOAD binaries/netstart.o
LOAD binaries/pdump.o
LOAD binaries/tftp.o
LOAD binaries/udp.o
LOAD binaries/addargs.o
LOAD binaries/lexan.o
LOAD binaries/shell.o
LOAD binaries/xsh_argecho.o
LOAD binaries/xsh_arp.o
LOAD binaries/xsh_cat.o
LOAD binaries/xsh_clear.o
LOAD binaries/xsh_date.o
LOAD binaries/xsh_devdump.o
LOAD binaries/xsh_echo.o
LOAD binaries/xsh_exit.o
LOAD binaries/xsh_help.o
LOAD binaries/xsh_ipaddr.o
LOAD binaries/xsh_kill.o
LOAD binaries/xsh_memdump.o
LOAD binaries/xsh_memstat.o
LOAD binaries/xsh_ping.o
LOAD binaries/xsh_ps.o
LOAD binaries/xsh_sleep.o
LOAD binaries/xsh_udpdump.o
LOAD binaries/xsh_udpecho.o
LOAD binaries/xsh_udpeserver.o
LOAD binaries/xsh_uptime.o
LOAD binaries/clkdisp.o
LOAD binaries/ctxsw.o
LOAD binaries/intr.o
LOAD binaries/ttydispatch.o
LOAD binaries/ethdispatch.o
OUTPUT(../compile/xinu.elf elf32-i386)

.debug_line     0x0000000000000000    0x15d7c
 .debug_line    0x0000000000000000       0xd5 binaries/start.o
 .debug_line    0x00000000000000d5      0x201 binaries/ascdate.o
 .debug_line    0x00000000000002d6      0x175 binaries/bufinit.o
 .debug_line    0x000000000000044b      0x196 binaries/cbreg.o
 .debug_line    0x00000000000005e1      0x197 binaries/chprio.o
 .debug_line    0x0000000000000778      0x197 binaries/clkhandler.o
 .debug_line    0x000000000000090f      0x18b binaries/clkinit.o
 .debug_line    0x0000000000000a9a      0x18e binaries/close.o
 .debug_line    0x0000000000000c28      0x161 binaries/conf.o
 .debug_line    0x0000000000000d89      0x191 binaries/control.o
 .debug_line    0x0000000000000f1a      0x1e6 binaries/create.o
 .debug_line    0x0000000000001100      0x1c8 binaries/early_imr.o
 .debug_line    0x00000000000012c8      0x1ec binaries/evec.o
 .debug_line    0x00000000000014b4      0x19c binaries/freebuf.o
 .debug_line    0x0000000000001650      0x1bc binaries/freemem.o
 .debug_line    0x000000000000180c      0x19b binaries/getbuf.o
 .debug_line    0x00000000000019a7      0x18d binaries/getc.o
 .debug_line    0x0000000000001b34      0x1a0 binaries/getdev.o
 .debug_line    0x0000000000001cd4      0x18a binaries/getitem.o
 .debug_line    0x0000000000001e5e      0x1b3 binaries/getmem.o
 .debug_line    0x0000000000002011      0x174 binaries/getpid.o
 .debug_line    0x0000000000002185      0x197 binaries/getprio.o
 .debug_line    0x000000000000231c      0x1a4 binaries/getstk.o
 .debug_line    0x00000000000024c0      0x18b binaries/gettime.o
 .debug_line    0x000000000000264b      0x1c2 binaries/getutime.o
 .debug_line    0x000000000000280d      0x371 binaries/i386-stub.o
 .debug_line    0x0000000000002b7e      0x18d binaries/init.o
 .debug_line    0x0000000000002d0b      0x206 binaries/initialize.o
 .debug_line    0x0000000000002f11      0x18b binaries/insert.o
 .debug_line    0x000000000000309c      0x1a4 binaries/insertd.o
 .debug_line    0x0000000000003240      0x172 binaries/ioerr.o
 .debug_line    0x00000000000033b2      0x173 binaries/ionull.o
 .debug_line    0x0000000000003525      0x1ad binaries/kill.o
 .debug_line    0x00000000000036d2      0x1ba binaries/kprintf.o
 .debug_line    0x000000000000388c      0x212 binaries/main.o
 .debug_line    0x0000000000003a9e      0x19f binaries/mark.o
 .debug_line    0x0000000000003c3d      0x1e9 binaries/meminit.o
 .debug_line    0x0000000000003e26      0x1b6 binaries/mkbufpool.o
 .debug_line    0x0000000000003fdc      0x188 binaries/newqueue.o
 .debug_line    0x0000000000004164      0x18e binaries/open.o
 .debug_line    0x00000000000042f2      0x183 binaries/panic.o
 .debug_line    0x0000000000004475      0x265 binaries/pci.o
 .debug_line    0x00000000000046da      0x18d binaries/platinit.o
 .debug_line    0x0000000000004867      0x19f binaries/ptclear.o
 .debug_line    0x0000000000004a06      0x1a0 binaries/ptcount.o
 .debug_line    0x0000000000004ba6      0x1a7 binaries/ptcreate.o
 .debug_line    0x0000000000004d4d      0x19a binaries/ptdelete.o
 .debug_line    0x0000000000004ee7      0x1a7 binaries/ptinit.o
 .debug_line    0x000000000000508e      0x1b3 binaries/ptrecv.o
 .debug_line    0x0000000000005241      0x198 binaries/ptreset.o
 .debug_line    0x00000000000053d9      0x1b1 binaries/ptsend.o
 .debug_line    0x000000000000558a      0x18e binaries/putc.o
 .debug_line    0x0000000000005718      0x197 binaries/quark_irq.o
 .debug_line    0x00000000000058af      0x1e1 binaries/quark_pdat.o
 .debug_line    0x0000000000005a90      0x1a5 binaries/queue.o
 .debug_line    0x0000000000005c35      0x18e binaries/read.o
 .debug_line    0x0000000000005dc3      0x195 binaries/ready.o
 .debug_line    0x0000000000005f58      0x1ac binaries/receive.o
 .debug_line    0x0000000000006104      0x1d3 binaries/receiveq.o
 .debug_line    0x00000000000062d7      0x190 binaries/recvclr.o
 .debug_line    0x0000000000006467      0x1a2 binaries/recvtime.o
 .debug_line    0x0000000000006609      0x1d6 binaries/resched.o
 .debug_line    0x00000000000067df      0x19a binaries/resume.o
 .debug_line    0x0000000000006979      0x18e binaries/seek.o
 .debug_line    0x0000000000006b07      0x197 binaries/semcount.o
 .debug_line    0x0000000000006c9e      0x19e binaries/semcreate.o
 .debug_line    0x0000000000006e3c      0x19a binaries/semdelete.o
 .debug_line    0x0000000000006fd6      0x19f binaries/semreset.o
 .debug_line    0x0000000000007175      0x1a9 binaries/sendblk.o
 .debug_line    0x000000000000731e      0x19e binaries/send.o
 .debug_line    0x00000000000074bc      0x1af binaries/sendq.o
 .debug_line    0x000000000000766b      0x193 binaries/signal.o
 .debug_line    0x00000000000077fe      0x19a binaries/signaln.o
 .debug_line    0x0000000000007998      0x19d binaries/sleep.o
 .debug_line    0x0000000000007b35      0x1a0 binaries/suspend.o
 .debug_line    0x0000000000007cd5      0x19c binaries/unsleep.o
 .debug_line    0x0000000000007e71      0x185 binaries/userret.o
 .debug_line    0x0000000000007ff6      0x197 binaries/wait.o
 .debug_line    0x000000000000818d      0x192 binaries/wakeup.o
 .debug_line    0x000000000000831f      0x18f binaries/write.o
 .debug_line    0x00000000000084ae      0x184 binaries/xdone.o
 .debug_line    0x0000000000008632      0x185 binaries/yield.o
 .debug_line    0x00000000000087b7       0x3e binaries/abs.o
 .debug_line    0x00000000000087f5       0x55 binaries/atoi.o
 .debug_line    0x000000000000884a       0x55 binaries/atol.o
 .debug_line    0x000000000000889f       0x4a binaries/bzero.o
 .debug_line    0x00000000000088e9       0x46 binaries/ctype_.o
 .debug_line    0x000000000000892f      0x281 binaries/doprnt.o
 .debug_line    0x0000000000008bb0      0x1a3 binaries/doscan.o
 .debug_line    0x0000000000008d53      0x23a binaries/fdoprnt.o
 .debug_line    0x0000000000008f8d       0x44 binaries/fgetc.o
 .debug_line    0x0000000000008fd1       0x52 binaries/fgets.o
 .debug_line    0x0000000000009023      0x180 binaries/fprintf.o
 .debug_line    0x00000000000091a3       0x45 binaries/fputc.o
 .debug_line    0x00000000000091e8       0x47 binaries/fputs.o
 .debug_line    0x000000000000922f       0x52 binaries/fscanf.o
 .debug_line    0x0000000000009281      0x17c binaries/getchar.o
 .debug_line    0x00000000000093fd       0x3f binaries/labs.o
 .debug_line    0x000000000000943c       0x45 binaries/memchr.o
 .debug_line    0x0000000000009481       0x4a binaries/memcmp.o
 .debug_line    0x00000000000094cb       0x4b binaries/memcpy.o
 .debug_line    0x0000000000009516       0x51 binaries/memset.o
 .debug_line    0x0000000000009567      0x180 binaries/printf.o
 .debug_line    0x00000000000096e7      0x17d binaries/putchar.o
 .debug_line    0x0000000000009864       0xc6 binaries/qsort.o
 .debug_line    0x000000000000992a       0x43 binaries/rand.o
 .debug_line    0x000000000000996d       0x63 binaries/sprintf.o
 .debug_line    0x00000000000099d0       0x54 binaries/sscanf.o
 .debug_line    0x0000000000009a24       0x46 binaries/strchr.o
 .debug_line    0x0000000000009a6a       0x4b binaries/strcmp.o
 .debug_line    0x0000000000009ab5       0x45 binaries/strcpy.o
 .debug_line    0x0000000000009afa       0x45 binaries/strlen.o
 .debug_line    0x0000000000009b3f       0x4d binaries/strncat.o
 .debug_line    0x0000000000009b8c       0x4c binaries/strncmp.o
 .debug_line    0x0000000000009bd8       0x52 binaries/strncpy.o
 .debug_line    0x0000000000009c2a       0x4d binaries/strnlen.o
 .debug_line    0x0000000000009c77       0x49 binaries/strrchr.o
 .debug_line    0x0000000000009cc0       0x64 binaries/strstr.o
 .debug_line    0x0000000000009d24      0x1ad binaries/ttycontrol.o
 .debug_line    0x0000000000009ed1      0x1a9 binaries/ttygetc.o
 .debug_line    0x000000000000a07a      0x25c binaries/ttyhandle_in.o
 .debug_line    0x000000000000a2d6      0x1e3 binaries/ttyhandle_out.o
 .debug_line    0x000000000000a4b9      0x1ae binaries/ttyhandler.o
 .debug_line    0x000000000000a667      0x1bc binaries/ttyinit.o
 .debug_line    0x000000000000a823      0x186 binaries/ttykickout.o
 .debug_line    0x000000000000a9a9      0x1a8 binaries/ttyputc.o
 .debug_line    0x000000000000ab51      0x1bb binaries/ttyread.o
 .debug_line    0x000000000000ad0c      0x19d binaries/ttywrite.o
 .debug_line    0x000000000000aea9      0x1cb binaries/mount.o
 .debug_line    0x000000000000b074      0x1c4 binaries/naminit.o
 .debug_line    0x000000000000b238      0x201 binaries/nammap.o
 .debug_line    0x000000000000b439      0x191 binaries/namopen.o
 .debug_line    0x000000000000b5ca      0x1ba binaries/colon2mac.o
 .debug_line    0x000000000000b784      0x1a2 binaries/ethcontrol.o
 .debug_line    0x000000000000b926      0x1da binaries/ethhandler.o
 .debug_line    0x000000000000bb00      0x2a6 binaries/ethinit.o
 .debug_line    0x000000000000bda6      0x1cd binaries/ethmcast.o
 .debug_line    0x000000000000bf73      0x1de binaries/ethread.o
 .debug_line    0x000000000000c151      0x1b7 binaries/ethwrite.o
 .debug_line    0x000000000000c308      0x1a6 binaries/rdsbufalloc.o
 .debug_line    0x000000000000c4ae      0x197 binaries/rdsclose.o
 .debug_line    0x000000000000c645      0x1ce binaries/rdscomm.o
 .debug_line    0x000000000000c813      0x1d2 binaries/rdscontrol.o
 .debug_line    0x000000000000c9e5      0x1c7 binaries/rdsinit.o
 .debug_line    0x000000000000cbac      0x1bf binaries/rdsopen.o
 .debug_line    0x000000000000cd6b      0x22d binaries/rdsprocess.o
 .debug_line    0x000000000000cf98      0x1f2 binaries/rdsread.o
 .debug_line    0x000000000000d18a      0x1d8 binaries/rdswrite.o
 .debug_line    0x000000000000d362      0x179 binaries/ramclose.o
 .debug_line    0x000000000000d4db      0x199 binaries/raminit.o
 .debug_line    0x000000000000d674      0x179 binaries/ramopen.o
 .debug_line    0x000000000000d7ed      0x198 binaries/ramread.o
 .debug_line    0x000000000000d985      0x199 binaries/ramwrite.o
 .debug_line    0x000000000000db1e      0x199 binaries/lfdballoc.o
 .debug_line    0x000000000000dcb7      0x18f binaries/lfdbfree.o
 .debug_line    0x000000000000de46      0x19f binaries/lfflush.o
 .debug_line    0x000000000000dfe5      0x1a0 binaries/lfgetmode.o
 .debug_line    0x000000000000e185      0x195 binaries/lfiballoc.o
 .debug_line    0x000000000000e31a      0x186 binaries/lfibclear.o
 .debug_line    0x000000000000e4a0      0x199 binaries/lfibget.o
 .debug_line    0x000000000000e639      0x1a3 binaries/lfibput.o
 .debug_line    0x000000000000e7dc      0x1a6 binaries/lflclose.o
 .debug_line    0x000000000000e982      0x1a4 binaries/lflcontrol.o
 .debug_line    0x000000000000eb26      0x1a7 binaries/lflgetc.o
 .debug_line    0x000000000000eccd      0x1a7 binaries/lflinit.o
 .debug_line    0x000000000000ee74      0x1b1 binaries/lflputc.o
 .debug_line    0x000000000000f025      0x1a6 binaries/lflread.o
 .debug_line    0x000000000000f1cb      0x1a0 binaries/lflseek.o
 .debug_line    0x000000000000f36b      0x195 binaries/lflwrite.o
 .debug_line    0x000000000000f500      0x1bb binaries/lfsckfmt.o
 .debug_line    0x000000000000f6bb      0x1e6 binaries/lfscreate.o
 .debug_line    0x000000000000f8a1      0x1e0 binaries/lfsetup.o
 .debug_line    0x000000000000fa81      0x18d binaries/lfsinit.o
 .debug_line    0x000000000000fc0e      0x21d binaries/lfsopen.o
 .debug_line    0x000000000000fe2b      0x1cf binaries/lftruncate.o
 .debug_line    0x000000000000fffa      0x197 binaries/rflclose.o
 .debug_line    0x0000000000010191      0x18c binaries/rflgetc.o
 .debug_line    0x000000000001031d      0x18b binaries/rflinit.o
 .debug_line    0x00000000000104a8      0x18c binaries/rflputc.o
 .debug_line    0x0000000000010634      0x1df binaries/rflread.o
 .debug_line    0x0000000000010813      0x196 binaries/rflseek.o
 .debug_line    0x00000000000109a9      0x1ee binaries/rflwrite.o
 .debug_line    0x0000000000010b97      0x1c0 binaries/rfscomm.o
 .debug_line    0x0000000000010d57      0x1d1 binaries/rfscontrol.o
 .debug_line    0x0000000000010f28      0x1a1 binaries/rfsgetmode.o
 .debug_line    0x00000000000110c9      0x195 binaries/rfsinit.o
 .debug_line    0x000000000001125e      0x1a2 binaries/rfsndmsg.o
 .debug_line    0x0000000000011400      0x1db binaries/rfsopen.o
 .debug_line    0x00000000000115db      0x2a1 binaries/arp.o
 .debug_line    0x000000000001187c      0x256 binaries/dhcp.o
 .debug_line    0x0000000000011ad2      0x1b4 binaries/dot2ip.o
 .debug_line    0x0000000000011c86      0x213 binaries/hexdump.o
 .debug_line    0x0000000000011e99      0x2c2 binaries/icmp.o
 .debug_line    0x000000000001215b      0x298 binaries/ip.o
 .debug_line    0x00000000000123f3      0x1c0 binaries/net.o
 .debug_line    0x00000000000125b3      0x198 binaries/netstart.o
 .debug_line    0x000000000001274b      0x2d3 binaries/pdump.o
 .debug_line    0x0000000000012a1e      0x29a binaries/tftp.o
 .debug_line    0x0000000000012cb8      0x31d binaries/udp.o
 .debug_line    0x0000000000012fd5      0x1be binaries/addargs.o
 .debug_line    0x0000000000013193      0x1e5 binaries/lexan.o
 .debug_line    0x0000000000013378      0x297 binaries/shell.o
 .debug_line    0x000000000001360f      0x193 binaries/xsh_argecho.o
 .debug_line    0x00000000000137a2      0x1d0 binaries/xsh_arp.o
 .debug_line    0x0000000000013972      0x1f5 binaries/xsh_cat.o
 .debug_line    0x0000000000013b67      0x187 binaries/xsh_clear.o
 .debug_line    0x0000000000013cee      0x1de binaries/xsh_date.o
 .debug_line    0x0000000000013ecc      0x19e binaries/xsh_devdump.o
 .debug_line    0x000000000001406a      0x192 binaries/xsh_echo.o
 .debug_line    0x00000000000141fc      0x174 binaries/xsh_exit.o
 .debug_line    0x0000000000014370      0x201 binaries/xsh_help.o
 .debug_line    0x0000000000014571      0x1fc binaries/xsh_ipaddr.o
 .debug_line    0x000000000001476d      0x1dd binaries/xsh_kill.o
 .debug_line    0x000000000001494a      0x24a binaries/xsh_memdump.o
 .debug_line    0x0000000000014b94      0x1d7 binaries/xsh_memstat.o
 .debug_line    0x0000000000014d6b      0x1f5 binaries/xsh_ping.o
 .debug_line    0x0000000000014f60      0x1bc binaries/xsh_ps.o
 .debug_line    0x000000000001511c      0x1d6 binaries/xsh_sleep.o
 .debug_line    0x00000000000152f2      0x1dc binaries/xsh_udpdump.o
 .debug_line    0x00000000000154ce      0x21f binaries/xsh_udpecho.o
 .debug_line    0x00000000000156ed      0x1e7 binaries/xsh_udpeserver.o
 .debug_line    0x00000000000158d4      0x1c4 binaries/xsh_uptime.o
 .debug_line    0x0000000000015a98       0x4a binaries/clkdisp.o
 .debug_line    0x0000000000015ae2       0x4d binaries/ctxsw.o
 .debug_line    0x0000000000015b2f      0x1a7 binaries/intr.o
 .debug_line    0x0000000000015cd6       0x53 binaries/ttydispatch.o
 .debug_line    0x0000000000015d29       0x53 binaries/ethdispatch.o

.debug_info     0x0000000000000000   0x1026bf
 .debug_info    0x0000000000000000       0x26 binaries/start.o
 .debug_info    0x0000000000000026     0x166c binaries/ascdate.o
 .debug_info    0x0000000000001692     0x149f binaries/bufinit.o
 .debug_info    0x0000000000002b31     0x1500 binaries/cbreg.o
 .debug_info    0x0000000000004031     0x1507 binaries/chprio.o
 .debug_info    0x0000000000005538     0x14b6 binaries/clkhandler.o
 .debug_info    0x00000000000069ee     0x1510 binaries/clkinit.o
 .debug_info    0x0000000000007efe     0x14fe binaries/close.o
 .debug_info    0x00000000000093fc     0x146a binaries/conf.o
 .debug_info    0x000000000000a866     0x1528 binaries/control.o
 .debug_info    0x000000000000bd8e     0x15f3 binaries/create.o
 .debug_info    0x000000000000d381     0x17ae binaries/early_imr.o
 .debug_info    0x000000000000eb2f     0x17a4 binaries/evec.o
 .debug_info    0x00000000000102d3     0x1514 binaries/freebuf.o
 .debug_info    0x00000000000117e7     0x1538 binaries/freemem.o
 .debug_info    0x0000000000012d1f     0x1508 binaries/getbuf.o
 .debug_info    0x0000000000014227     0x14fe binaries/getc.o
 .debug_info    0x0000000000015725     0x14fb binaries/getdev.o
 .debug_info    0x0000000000016c20     0x1523 binaries/getitem.o
 .debug_info    0x0000000000018143     0x1519 binaries/getmem.o
 .debug_info    0x000000000001965c     0x147a binaries/getpid.o
 .debug_info    0x000000000001aad6     0x14f3 binaries/getprio.o
 .debug_info    0x000000000001bfc9     0x151f binaries/getstk.o
 .debug_info    0x000000000001d4e8     0x14cf binaries/gettime.o
 .debug_info    0x000000000001e9b7     0x15bb binaries/getutime.o
 .debug_info    0x000000000001ff72     0x20c6 binaries/i386-stub.o
 .debug_info    0x0000000000022038     0x14fe binaries/init.o
 .debug_info    0x0000000000023536     0x1748 binaries/initialize.o
 .debug_info    0x0000000000024c7e     0x14ce binaries/insert.o
 .debug_info    0x000000000002614c     0x14cd binaries/insertd.o
 .debug_info    0x0000000000027619     0x147a binaries/ioerr.o
 .debug_info    0x0000000000028a93     0x147a binaries/ionull.o
 .debug_info    0x0000000000029f0d     0x15a4 binaries/kill.o
 .debug_info    0x000000000002b4b1     0x1637 binaries/kprintf.o
 .debug_info    0x000000000002cae8     0x1932 binaries/main.o
 .debug_info    0x000000000002e41a     0x1512 binaries/mark.o
 .debug_info    0x000000000002f92c     0x1780 binaries/meminit.o
 .debug_info    0x00000000000310ac     0x1551 binaries/mkbufpool.o
 .debug_info    0x00000000000325fd     0x1499 binaries/newqueue.o
 .debug_info    0x0000000000033a96     0x151a binaries/open.o
 .debug_info    0x0000000000034fb0     0x14b1 binaries/panic.o
 .debug_info    0x0000000000036461     0x1e27 binaries/pci.o
 .debug_info    0x0000000000038288     0x1503 binaries/platinit.o
 .debug_info    0x000000000003978b     0x150b binaries/ptclear.o
 .debug_info    0x000000000003ac96     0x1524 binaries/ptcount.o
 .debug_info    0x000000000003c1ba     0x1538 binaries/ptcreate.o
 .debug_info    0x000000000003d6f2     0x1531 binaries/ptdelete.o
 .debug_info    0x000000000003ec23     0x1514 binaries/ptinit.o
 .debug_info    0x0000000000040137     0x154a binaries/ptrecv.o
 .debug_info    0x0000000000041681     0x1531 binaries/ptreset.o
 .debug_info    0x0000000000042bb2     0x1578 binaries/ptsend.o
 .debug_info    0x000000000004412a     0x150b binaries/putc.o
 .debug_info    0x0000000000045635     0x14f6 binaries/quark_irq.o
 .debug_info    0x0000000000046b2b     0x1677 binaries/quark_pdat.o
 .debug_info    0x00000000000481a2     0x150e binaries/queue.o
 .debug_info    0x00000000000496b0     0x151a binaries/read.o
 .debug_info    0x000000000004abca     0x14df binaries/ready.o
 .debug_info    0x000000000004c0a9     0x1555 binaries/receive.o
 .debug_info    0x000000000004d5fe     0x15be binaries/receiveq.o
 .debug_info    0x000000000004ebbc     0x14e2 binaries/recvclr.o
 .debug_info    0x000000000005009e     0x1522 binaries/recvtime.o
 .debug_info    0x00000000000515c0     0x1548 binaries/resched.o
 .debug_info    0x0000000000052b08     0x1517 binaries/resume.o
 .debug_info    0x000000000005401f     0x150c binaries/seek.o
 .debug_info    0x000000000005552b     0x14f3 binaries/semcount.o
 .debug_info    0x0000000000056a1e     0x154a binaries/semcreate.o
 .debug_info    0x0000000000057f68     0x1545 binaries/semdelete.o
 .debug_info    0x00000000000594ad     0x1568 binaries/semreset.o
 .debug_info    0x000000000005aa15     0x1540 binaries/sendblk.o
 .debug_info    0x000000000005bf55     0x153f binaries/send.o
 .debug_info    0x000000000005d494     0x1554 binaries/sendq.o
 .debug_info    0x000000000005e9e8     0x1527 binaries/signal.o
 .debug_info    0x000000000005ff0f     0x1554 binaries/signaln.o
 .debug_info    0x0000000000061463     0x155c binaries/sleep.o
 .debug_info    0x00000000000629bf     0x1536 binaries/suspend.o
 .debug_info    0x0000000000063ef5     0x1521 binaries/unsleep.o
 .debug_info    0x0000000000065416     0x14a3 binaries/userret.o
 .debug_info    0x00000000000668b9     0x1538 binaries/wait.o
 .debug_info    0x0000000000067df1     0x14c2 binaries/wakeup.o
 .debug_info    0x00000000000692b3     0x151a binaries/write.o
 .debug_info    0x000000000006a7cd     0x14a3 binaries/xdone.o
 .debug_info    0x000000000006bc70     0x14e2 binaries/yield.o
 .debug_info    0x000000000006d152       0x56 binaries/abs.o
 .debug_info    0x000000000006d1a8       0x7b binaries/atoi.o
 .debug_info    0x000000000006d223       0x82 binaries/atol.o
 .debug_info    0x000000000006d2a5       0x87 binaries/bzero.o
 .debug_info    0x000000000006d32c       0x59 binaries/ctype_.o
 .debug_info    0x000000000006d385      0x461 binaries/doprnt.o
 .debug_info    0x000000000006d7e6      0x4a8 binaries/doscan.o
 .debug_info    0x000000000006dc8e      0x446 binaries/fdoprnt.o
 .debug_info    0x000000000006e0d4       0x78 binaries/fgetc.o
 .debug_info    0x000000000006e14c       0xaa binaries/fgets.o
 .debug_info    0x000000000006e1f6     0x14f8 binaries/fprintf.o
 .debug_info    0x000000000006f6ee       0x75 binaries/fputc.o
 .debug_info    0x000000000006f763       0x9e binaries/fputs.o
 .debug_info    0x000000000006f801      0x144 binaries/fscanf.o
 .debug_info    0x000000000006f945     0x1493 binaries/getchar.o
 .debug_info    0x0000000000070dd8       0x56 binaries/labs.o
 .debug_info    0x0000000000070e2e       0x91 binaries/memchr.o
 .debug_info    0x0000000000070ebf       0xa5 binaries/memcmp.o
 .debug_info    0x0000000000070f64       0xb0 binaries/memcpy.o
 .debug_info    0x0000000000071014       0x96 binaries/memset.o
 .debug_info    0x00000000000710aa     0x14f5 binaries/printf.o
 .debug_info    0x000000000007259f     0x149f binaries/putchar.o
 .debug_info    0x0000000000073a3e      0x324 binaries/qsort.o
 .debug_info    0x0000000000073d62       0x71 binaries/rand.o
 .debug_info    0x0000000000073dd3      0x10a binaries/sprintf.o
 .debug_info    0x0000000000073edd      0x111 binaries/sscanf.o
 .debug_info    0x0000000000073fee       0x79 binaries/strchr.o
 .debug_info    0x0000000000074067       0x72 binaries/strcmp.o
 .debug_info    0x00000000000740d9       0x72 binaries/strcpy.o
 .debug_info    0x000000000007414b       0x72 binaries/strlen.o
 .debug_info    0x00000000000741bd       0x97 binaries/strncat.o
 .debug_info    0x0000000000074254       0x7d binaries/strncmp.o
 .debug_info    0x00000000000742d1       0xa4 binaries/strncpy.o
 .debug_info    0x0000000000074375       0x89 binaries/strnlen.o
 .debug_info    0x00000000000743fe       0x86 binaries/strrchr.o
 .debug_info    0x0000000000074484       0x8f binaries/strstr.o
 .debug_info    0x0000000000074513     0x1515 binaries/ttycontrol.o
 .debug_info    0x0000000000075a28     0x14c1 binaries/ttygetc.o
 .debug_info    0x0000000000076ee9     0x1953 binaries/ttyhandle_in.o
 .debug_info    0x000000000007883c     0x158d binaries/ttyhandle_out.o
 .debug_info    0x0000000000079dc9     0x1575 binaries/ttyhandler.o
 .debug_info    0x000000000007b33e     0x157d binaries/ttyinit.o
 .debug_info    0x000000000007c8bb     0x1501 binaries/ttykickout.o
 .debug_info    0x000000000007ddbc     0x1550 binaries/ttyputc.o
 .debug_info    0x000000000007f30c     0x1533 binaries/ttyread.o
 .debug_info    0x000000000008083f     0x14c0 binaries/ttywrite.o
 .debug_info    0x0000000000081cff     0x1595 binaries/mount.o
 .debug_info    0x0000000000083294     0x15b5 binaries/naminit.o
 .debug_info    0x0000000000084849     0x166a binaries/nammap.o
 .debug_info    0x0000000000085eb3     0x1501 binaries/namopen.o
 .debug_info    0x00000000000873b4     0x14ee binaries/colon2mac.o
 .debug_info    0x00000000000888a2     0x1518 binaries/ethcontrol.o
 .debug_info    0x0000000000089dba     0x1723 binaries/ethhandler.o
 .debug_info    0x000000000008b4dd     0x19f9 binaries/ethinit.o
 .debug_info    0x000000000008ced6     0x170c binaries/ethmcast.o
 .debug_info    0x000000000008e5e2     0x15a6 binaries/ethread.o
 .debug_info    0x000000000008fb88     0x16eb binaries/ethwrite.o
 .debug_info    0x0000000000091273     0x14ea binaries/rdsbufalloc.o
 .debug_info    0x000000000009275d     0x14c7 binaries/rdsclose.o
 .debug_info    0x0000000000093c24     0x15f9 binaries/rdscomm.o
 .debug_info    0x000000000009521d     0x16af binaries/rdscontrol.o
 .debug_info    0x00000000000968cc     0x157f binaries/rdsinit.o
 .debug_info    0x0000000000097e4b     0x160d binaries/rdsopen.o
 .debug_info    0x0000000000099458     0x16d2 binaries/rdsprocess.o
 .debug_info    0x000000000009ab2a     0x1588 binaries/rdsread.o
 .debug_info    0x000000000009c0b2     0x157c binaries/rdswrite.o
 .debug_info    0x000000000009d62e     0x1489 binaries/ramclose.o
 .debug_info    0x000000000009eab7     0x14f2 binaries/raminit.o
 .debug_info    0x000000000009ffa9     0x14a5 binaries/ramopen.o
 .debug_info    0x00000000000a144e     0x1507 binaries/ramread.o
 .debug_info    0x00000000000a2955     0x1507 binaries/ramwrite.o
 .debug_info    0x00000000000a3e5c     0x1545 binaries/lfdballoc.o
 .debug_info    0x00000000000a53a1     0x151b binaries/lfdbfree.o
 .debug_info    0x00000000000a68bc     0x14d1 binaries/lfflush.o
 .debug_info    0x00000000000a7d8d     0x14a5 binaries/lfgetmode.o
 .debug_info    0x00000000000a9232     0x14db binaries/lfiballoc.o
 .debug_info    0x00000000000aa70d     0x14aa binaries/lfibclear.o
 .debug_info    0x00000000000abbb7     0x14f9 binaries/lfibget.o
 .debug_info    0x00000000000ad0b0     0x152c binaries/lfibput.o
 .debug_info    0x00000000000ae5dc     0x14e5 binaries/lflclose.o
 .debug_info    0x00000000000afac1     0x1552 binaries/lflcontrol.o
 .debug_info    0x00000000000b1013     0x1509 binaries/lflgetc.o
 .debug_info    0x00000000000b251c     0x14ef binaries/lflinit.o
 .debug_info    0x00000000000b3a0b     0x150b binaries/lflputc.o
 .debug_info    0x00000000000b4f16     0x14dc binaries/lflread.o
 .debug_info    0x00000000000b63f2     0x14e8 binaries/lflseek.o
 .debug_info    0x00000000000b78da     0x14cd binaries/lflwrite.o
 .debug_info    0x00000000000b8da7     0x160f binaries/lfsckfmt.o
 .debug_info    0x00000000000ba3b6     0x1641 binaries/lfscreate.o
 .debug_info    0x00000000000bb9f7     0x1610 binaries/lfsetup.o
 .debug_info    0x00000000000bd007     0x14c4 binaries/lfsinit.o
 .debug_info    0x00000000000be4cb     0x15d6 binaries/lfsopen.o
 .debug_info    0x00000000000bfaa1     0x1555 binaries/lftruncate.o
 .debug_info    0x00000000000c0ff6     0x14d1 binaries/rflclose.o
 .debug_info    0x00000000000c24c7     0x14be binaries/rflgetc.o
 .debug_info    0x00000000000c3985     0x14c5 binaries/rflinit.o
 .debug_info    0x00000000000c4e4a     0x14b0 binaries/rflputc.o
 .debug_info    0x00000000000c62fa     0x16cd binaries/rflread.o
 .debug_info    0x00000000000c79c7     0x14df binaries/rflseek.o
 .debug_info    0x00000000000c8ea6     0x16c4 binaries/rflwrite.o
 .debug_info    0x00000000000ca56a     0x15a8 binaries/rfscomm.o
 .debug_info    0x00000000000cbb12     0x16c4 binaries/rfscontrol.o
 .debug_info    0x00000000000cd1d6     0x14a5 binaries/rfsgetmode.o
 .debug_info    0x00000000000ce67b     0x14e1 binaries/rfsinit.o
 .debug_info    0x00000000000cfb5c     0x1548 binaries/rfsndmsg.o
 .debug_info    0x00000000000d10a4     0x16b1 binaries/rfsopen.o
 .debug_info    0x00000000000d2755     0x18f5 binaries/arp.o
 .debug_info    0x00000000000d404a     0x192a binaries/dhcp.o
 .debug_info    0x00000000000d5974     0x14ec binaries/dot2ip.o
 .debug_info    0x00000000000d6e60     0x1675 binaries/hexdump.o
 .debug_info    0x00000000000d84d5     0x1a78 binaries/icmp.o
 .debug_info    0x00000000000d9f4d     0x19ea binaries/ip.o
 .debug_info    0x00000000000db937     0x1732 binaries/net.o
 .debug_info    0x00000000000dd069     0x14f6 binaries/netstart.o
 .debug_info    0x00000000000de55f     0x17cf binaries/pdump.o
 .debug_info    0x00000000000dfd2e     0x1930 binaries/tftp.o
 .debug_info    0x00000000000e165e     0x1bb3 binaries/udp.o
 .debug_info    0x00000000000e3211     0x15b3 binaries/addargs.o
 .debug_info    0x00000000000e47c4     0x1517 binaries/lexan.o
 .debug_info    0x00000000000e5cdb     0x1790 binaries/shell.o
 .debug_info    0x00000000000e746b     0x14d9 binaries/xsh_argecho.o
 .debug_info    0x00000000000e8944     0x15ec binaries/xsh_arp.o
 .debug_info    0x00000000000e9f30     0x15bf binaries/xsh_cat.o
 .debug_info    0x00000000000eb4ef     0x14ce binaries/xsh_clear.o
 .debug_info    0x00000000000ec9bd     0x15cf binaries/xsh_date.o
 .debug_info    0x00000000000edf8c     0x14f8 binaries/xsh_devdump.o
 .debug_info    0x00000000000ef484     0x14d9 binaries/xsh_echo.o
 .debug_info    0x00000000000f095d     0x14a2 binaries/xsh_exit.o
 .debug_info    0x00000000000f1dff     0x161e binaries/xsh_help.o
 .debug_info    0x00000000000f341d     0x1628 binaries/xsh_ipaddr.o
 .debug_info    0x00000000000f4a45     0x1582 binaries/xsh_kill.o
 .debug_info    0x00000000000f5fc7     0x1689 binaries/xsh_memdump.o
 .debug_info    0x00000000000f7650     0x1659 binaries/xsh_memstat.o
 .debug_info    0x00000000000f8ca9     0x1633 binaries/xsh_ping.o
 .debug_info    0x00000000000fa2dc     0x1566 binaries/xsh_ps.o
 .debug_info    0x00000000000fb842     0x156b binaries/xsh_sleep.o
 .debug_info    0x00000000000fcdad     0x15f2 binaries/xsh_udpdump.o
 .debug_info    0x00000000000fe39f     0x16b3 binaries/xsh_udpecho.o
 .debug_info    0x00000000000ffa52     0x160a binaries/xsh_udpeserver.o
 .debug_info    0x000000000010105c     0x15a5 binaries/xsh_uptime.o
 .debug_info    0x0000000000102601       0x26 binaries/clkdisp.o
 .debug_info    0x0000000000102627       0x26 binaries/ctxsw.o
 .debug_info    0x000000000010264d       0x26 binaries/intr.o
 .debug_info    0x0000000000102673       0x26 binaries/ttydispatch.o
 .debug_info    0x0000000000102699       0x26 binaries/ethdispatch.o

.debug_abbrev   0x0000000000000000    0x154ed
 .debug_abbrev  0x0000000000000000       0x14 binaries/start.o
 .debug_abbrev  0x0000000000000014      0x1cc binaries/ascdate.o
 .debug_abbrev  0x00000000000001e0      0x15c binaries/bufinit.o
 .debug_abbrev  0x000000000000033c      0x1b2 binaries/cbreg.o
 .debug_abbrev  0x00000000000004ee      0x1b8 binaries/chprio.o
 .debug_abbrev  0x00000000000006a6      0x17a binaries/clkhandler.o
 .debug_abbrev  0x0000000000000820      0x1a9 binaries/clkinit.o
 .debug_abbrev  0x00000000000009c9      0x1a9 binaries/close.o
 .debug_abbrev  0x0000000000000b72      0x13e binaries/conf.o
 .debug_abbrev  0x0000000000000cb0      0x1a9 binaries/control.o
 .debug_abbrev  0x0000000000000e59      0x217 binaries/create.o
 .debug_abbrev  0x0000000000001070      0x296 binaries/early_imr.o
 .debug_abbrev  0x0000000000001306      0x232 binaries/evec.o
 .debug_abbrev  0x0000000000001538      0x1a9 binaries/freebuf.o
 .debug_abbrev  0x00000000000016e1      0x1ba binaries/freemem.o
 .debug_abbrev  0x000000000000189b      0x1a9 binaries/getbuf.o
 .debug_abbrev  0x0000000000001a44      0x1a9 binaries/getc.o
 .debug_abbrev  0x0000000000001bed      0x1ab binaries/getdev.o
 .debug_abbrev  0x0000000000001d98      0x194 binaries/getitem.o
 .debug_abbrev  0x0000000000001f2c      0x19c binaries/getmem.o
 .debug_abbrev  0x00000000000020c8      0x14f binaries/getpid.o
 .debug_abbrev  0x0000000000002217      0x19c binaries/getprio.o
 .debug_abbrev  0x00000000000023b3      0x19c binaries/getstk.o
 .debug_abbrev  0x000000000000254f      0x19a binaries/gettime.o
 .debug_abbrev  0x00000000000026e9      0x1ba binaries/getutime.o
 .debug_abbrev  0x00000000000028a3      0x3e0 binaries/i386-stub.o
 .debug_abbrev  0x0000000000002c83      0x1a9 binaries/init.o
 .debug_abbrev  0x0000000000002e2c      0x23e binaries/initialize.o
 .debug_abbrev  0x000000000000306a      0x17c binaries/insert.o
 .debug_abbrev  0x00000000000031e6      0x17c binaries/insertd.o
 .debug_abbrev  0x0000000000003362      0x14f binaries/ioerr.o
 .debug_abbrev  0x00000000000034b1      0x14f binaries/ionull.o
 .debug_abbrev  0x0000000000003600      0x1b8 binaries/kill.o
 .debug_abbrev  0x00000000000037b8      0x1c8 binaries/kprintf.o
 .debug_abbrev  0x0000000000003980      0x1e3 binaries/main.o
 .debug_abbrev  0x0000000000003b63      0x1a1 binaries/mark.o
 .debug_abbrev  0x0000000000003d04      0x1dd binaries/meminit.o
 .debug_abbrev  0x0000000000003ee1      0x1ab binaries/mkbufpool.o
 .debug_abbrev  0x000000000000408c      0x16d binaries/newqueue.o
 .debug_abbrev  0x00000000000041f9      0x1a9 binaries/open.o
 .debug_abbrev  0x00000000000043a2      0x17a binaries/panic.o
 .debug_abbrev  0x000000000000451c      0x25a binaries/pci.o
 .debug_abbrev  0x0000000000004776      0x189 binaries/platinit.o
 .debug_abbrev  0x00000000000048ff      0x189 binaries/ptclear.o
 .debug_abbrev  0x0000000000004a88      0x1b8 binaries/ptcount.o
 .debug_abbrev  0x0000000000004c40      0x1b8 binaries/ptcreate.o
 .debug_abbrev  0x0000000000004df8      0x19c binaries/ptdelete.o
 .debug_abbrev  0x0000000000004f94      0x1b8 binaries/ptinit.o
 .debug_abbrev  0x000000000000514c      0x1b8 binaries/ptrecv.o
 .debug_abbrev  0x0000000000005304      0x19c binaries/ptreset.o
 .debug_abbrev  0x00000000000054a0      0x1c7 binaries/ptsend.o
 .debug_abbrev  0x0000000000005667      0x1b8 binaries/putc.o
 .debug_abbrev  0x000000000000581f      0x19c binaries/quark_irq.o
 .debug_abbrev  0x00000000000059bb      0x1c9 binaries/quark_pdat.o
 .debug_abbrev  0x0000000000005b84      0x1b6 binaries/queue.o
 .debug_abbrev  0x0000000000005d3a      0x1a9 binaries/read.o
 .debug_abbrev  0x0000000000005ee3      0x1a7 binaries/ready.o
 .debug_abbrev  0x000000000000608a      0x1b4 binaries/receive.o
 .debug_abbrev  0x000000000000623e      0x1bd binaries/receiveq.o
 .debug_abbrev  0x00000000000063fb      0x1a9 binaries/recvclr.o
 .debug_abbrev  0x00000000000065a4      0x1b8 binaries/recvtime.o
 .debug_abbrev  0x000000000000675c      0x1bf binaries/resched.o
 .debug_abbrev  0x000000000000691b      0x1a9 binaries/resume.o
 .debug_abbrev  0x0000000000006ac4      0x1b8 binaries/seek.o
 .debug_abbrev  0x0000000000006c7c      0x19c binaries/semcount.o
 .debug_abbrev  0x0000000000006e18      0x1ee binaries/semcreate.o
 .debug_abbrev  0x0000000000007006      0x1a9 binaries/semdelete.o
 .debug_abbrev  0x00000000000071af      0x1c7 binaries/semreset.o
 .debug_abbrev  0x0000000000007376      0x1a9 binaries/sendblk.o
 .debug_abbrev  0x000000000000751f      0x1a9 binaries/send.o
 .debug_abbrev  0x00000000000076c8      0x1a9 binaries/sendq.o
 .debug_abbrev  0x0000000000007871      0x1a9 binaries/signal.o
 .debug_abbrev  0x0000000000007a1a      0x1b8 binaries/signaln.o
 .debug_abbrev  0x0000000000007bd2      0x19c binaries/sleep.o
 .debug_abbrev  0x0000000000007d6e      0x1a9 binaries/suspend.o
 .debug_abbrev  0x0000000000007f17      0x1a9 binaries/unsleep.o
 .debug_abbrev  0x00000000000080c0      0x16b binaries/userret.o
 .debug_abbrev  0x000000000000822b      0x1a9 binaries/wait.o
 .debug_abbrev  0x00000000000083d4      0x17c binaries/wakeup.o
 .debug_abbrev  0x0000000000008550      0x1a9 binaries/write.o
 .debug_abbrev  0x00000000000086f9      0x16b binaries/xdone.o
 .debug_abbrev  0x0000000000008864      0x18d binaries/yield.o
 .debug_abbrev  0x00000000000089f1       0x4a binaries/abs.o
 .debug_abbrev  0x0000000000008a3b       0x6d binaries/atoi.o
 .debug_abbrev  0x0000000000008aa8       0x6d binaries/atol.o
 .debug_abbrev  0x0000000000008b15       0x81 binaries/bzero.o
 .debug_abbrev  0x0000000000008b96       0x4e binaries/ctype_.o
 .debug_abbrev  0x0000000000008be4      0x1af binaries/doprnt.o
 .debug_abbrev  0x0000000000008d93      0x1f4 binaries/doscan.o
 .debug_abbrev  0x0000000000008f87      0x1af binaries/fdoprnt.o
 .debug_abbrev  0x0000000000009136       0x75 binaries/fgetc.o
 .debug_abbrev  0x00000000000091ab       0x98 binaries/fgets.o
 .debug_abbrev  0x0000000000009243      0x1ab binaries/fprintf.o
 .debug_abbrev  0x00000000000093ee       0x66 binaries/fputc.o
 .debug_abbrev  0x0000000000009454       0x89 binaries/fputs.o
 .debug_abbrev  0x00000000000094dd       0xd0 binaries/fscanf.o
 .debug_abbrev  0x00000000000095ad      0x16d binaries/getchar.o
 .debug_abbrev  0x000000000000971a       0x4a binaries/labs.o
 .debug_abbrev  0x0000000000009764       0x88 binaries/memchr.o
 .debug_abbrev  0x00000000000097ec       0x79 binaries/memcmp.o
 .debug_abbrev  0x0000000000009865       0x79 binaries/memcpy.o
 .debug_abbrev  0x00000000000098de       0x83 binaries/memset.o
 .debug_abbrev  0x0000000000009961      0x1ab binaries/printf.o
 .debug_abbrev  0x0000000000009b0c      0x17c binaries/putchar.o
 .debug_abbrev  0x0000000000009c88      0x107 binaries/qsort.o
 .debug_abbrev  0x0000000000009d8f       0x6f binaries/rand.o
 .debug_abbrev  0x0000000000009dfe       0xde binaries/sprintf.o
 .debug_abbrev  0x0000000000009edc       0xc1 binaries/sscanf.o
 .debug_abbrev  0x0000000000009f9d       0x65 binaries/strchr.o
 .debug_abbrev  0x000000000000a002       0x5e binaries/strcmp.o
 .debug_abbrev  0x000000000000a060       0x5e binaries/strcpy.o
 .debug_abbrev  0x000000000000a0be       0x6d binaries/strlen.o
 .debug_abbrev  0x000000000000a12b       0x74 binaries/strncat.o
 .debug_abbrev  0x000000000000a19f       0x5e binaries/strncmp.o
 .debug_abbrev  0x000000000000a1fd       0x74 binaries/strncpy.o
 .debug_abbrev  0x000000000000a271       0x74 binaries/strnlen.o
 .debug_abbrev  0x000000000000a2e5       0x74 binaries/strrchr.o
 .debug_abbrev  0x000000000000a359       0x78 binaries/strstr.o
 .debug_abbrev  0x000000000000a3d1      0x198 binaries/ttycontrol.o
 .debug_abbrev  0x000000000000a569      0x198 binaries/ttygetc.o
 .debug_abbrev  0x000000000000a701      0x250 binaries/ttyhandle_in.o
 .debug_abbrev  0x000000000000a951      0x19f binaries/ttyhandle_out.o
 .debug_abbrev  0x000000000000aaf0      0x19d binaries/ttyhandler.o
 .debug_abbrev  0x000000000000ac8d      0x1b0 binaries/ttyinit.o
 .debug_abbrev  0x000000000000ae3d      0x165 binaries/ttykickout.o
 .debug_abbrev  0x000000000000afa2      0x19f binaries/ttyputc.o
 .debug_abbrev  0x000000000000b141      0x1b6 binaries/ttyread.o
 .debug_abbrev  0x000000000000b2f7      0x18b binaries/ttywrite.o
 .debug_abbrev  0x000000000000b482      0x1c7 binaries/mount.o
 .debug_abbrev  0x000000000000b649      0x1c5 binaries/naminit.o
 .debug_abbrev  0x000000000000b80e      0x1c5 binaries/nammap.o
 .debug_abbrev  0x000000000000b9d3      0x19a binaries/namopen.o
 .debug_abbrev  0x000000000000bb6d      0x18d binaries/colon2mac.o
 .debug_abbrev  0x000000000000bcfa      0x19c binaries/ethcontrol.o
 .debug_abbrev  0x000000000000be96      0x196 binaries/ethhandler.o
 .debug_abbrev  0x000000000000c02c      0x1fc binaries/ethinit.o
 .debug_abbrev  0x000000000000c228      0x1b8 binaries/ethmcast.o
 .debug_abbrev  0x000000000000c3e0      0x1b6 binaries/ethread.o
 .debug_abbrev  0x000000000000c596      0x1db binaries/ethwrite.o
 .debug_abbrev  0x000000000000c771      0x18b binaries/rdsbufalloc.o
 .debug_abbrev  0x000000000000c8fc      0x17c binaries/rdsclose.o
 .debug_abbrev  0x000000000000ca78      0x1ba binaries/rdscomm.o
 .debug_abbrev  0x000000000000cc32      0x1c9 binaries/rdscontrol.o
 .debug_abbrev  0x000000000000cdfb      0x1b8 binaries/rdsinit.o
 .debug_abbrev  0x000000000000cfb3      0x1c9 binaries/rdsopen.o
 .debug_abbrev  0x000000000000d17c      0x1b6 binaries/rdsprocess.o
 .debug_abbrev  0x000000000000d332      0x1b8 binaries/rdsread.o
 .debug_abbrev  0x000000000000d4ea      0x1b8 binaries/rdswrite.o
 .debug_abbrev  0x000000000000d6a2      0x15e binaries/ramclose.o
 .debug_abbrev  0x000000000000d800      0x1a1 binaries/raminit.o
 .debug_abbrev  0x000000000000d9a1      0x15e binaries/ramopen.o
 .debug_abbrev  0x000000000000daff      0x1b2 binaries/ramread.o
 .debug_abbrev  0x000000000000dcb1      0x1b2 binaries/ramwrite.o
 .debug_abbrev  0x000000000000de63      0x18b binaries/lfdballoc.o
 .debug_abbrev  0x000000000000dfee      0x198 binaries/lfdbfree.o
 .debug_abbrev  0x000000000000e186      0x18d binaries/lfflush.o
 .debug_abbrev  0x000000000000e313      0x17c binaries/lfgetmode.o
 .debug_abbrev  0x000000000000e48f      0x19c binaries/lfiballoc.o
 .debug_abbrev  0x000000000000e62b      0x16d binaries/lfibclear.o
 .debug_abbrev  0x000000000000e798      0x1a7 binaries/lfibget.o
 .debug_abbrev  0x000000000000e93f      0x1a9 binaries/lfibput.o
 .debug_abbrev  0x000000000000eae8      0x19a binaries/lflclose.o
 .debug_abbrev  0x000000000000ec82      0x19c binaries/lflcontrol.o
 .debug_abbrev  0x000000000000ee1e      0x198 binaries/lflgetc.o
 .debug_abbrev  0x000000000000efb6      0x1a7 binaries/lflinit.o
 .debug_abbrev  0x000000000000f15d      0x1a7 binaries/lflputc.o
 .debug_abbrev  0x000000000000f304      0x19a binaries/lflread.o
 .debug_abbrev  0x000000000000f49e      0x189 binaries/lflseek.o
 .debug_abbrev  0x000000000000f627      0x19a binaries/lflwrite.o
 .debug_abbrev  0x000000000000f7c1      0x1d2 binaries/lfsckfmt.o
 .debug_abbrev  0x000000000000f993      0x1ff binaries/lfscreate.o
 .debug_abbrev  0x000000000000fb92      0x19c binaries/lfsetup.o
 .debug_abbrev  0x000000000000fd2e      0x189 binaries/lfsinit.o
 .debug_abbrev  0x000000000000feb7      0x1c7 binaries/lfsopen.o
 .debug_abbrev  0x000000000001007e      0x1a9 binaries/lftruncate.o
 .debug_abbrev  0x0000000000010227      0x189 binaries/rflclose.o
 .debug_abbrev  0x00000000000103b0      0x19a binaries/rflgetc.o
 .debug_abbrev  0x000000000001054a      0x18b binaries/rflinit.o
 .debug_abbrev  0x00000000000106d5      0x18b binaries/rflputc.o
 .debug_abbrev  0x0000000000010860      0x1e5 binaries/rflread.o
 .debug_abbrev  0x0000000000010a45      0x198 binaries/rflseek.o
 .debug_abbrev  0x0000000000010bdd      0x1e5 binaries/rflwrite.o
 .debug_abbrev  0x0000000000010dc2      0x1ba binaries/rfscomm.o
 .debug_abbrev  0x0000000000010f7c      0x1d6 binaries/rfscontrol.o
 .debug_abbrev  0x0000000000011152      0x17c binaries/rfsgetmode.o
 .debug_abbrev  0x00000000000112ce      0x19a binaries/rfsinit.o
 .debug_abbrev  0x0000000000011468      0x1d8 binaries/rfsndmsg.o
 .debug_abbrev  0x0000000000011640      0x1d8 binaries/rfsopen.o
 .debug_abbrev  0x0000000000011818      0x242 binaries/arp.o
 .debug_abbrev  0x0000000000011a5a      0x219 binaries/dhcp.o
 .debug_abbrev  0x0000000000011c73      0x18d binaries/dot2ip.o
 .debug_abbrev  0x0000000000011e00      0x1a7 binaries/hexdump.o
 .debug_abbrev  0x0000000000011fa7      0x280 binaries/icmp.o
 .debug_abbrev  0x0000000000012227      0x262 binaries/ip.o
 .debug_abbrev  0x0000000000012489      0x1df binaries/net.o
 .debug_abbrev  0x0000000000012668      0x18b binaries/netstart.o
 .debug_abbrev  0x00000000000127f3      0x189 binaries/pdump.o
 .debug_abbrev  0x000000000001297c      0x1f4 binaries/tftp.o
 .debug_abbrev  0x0000000000012b70      0x280 binaries/udp.o
 .debug_abbrev  0x0000000000012df0      0x1c7 binaries/addargs.o
 .debug_abbrev  0x0000000000012fb7      0x18b binaries/lexan.o
 .debug_abbrev  0x0000000000013142      0x1d6 binaries/shell.o
 .debug_abbrev  0x0000000000013318      0x18b binaries/xsh_argecho.o
 .debug_abbrev  0x00000000000134a3      0x1cd binaries/xsh_arp.o
 .debug_abbrev  0x0000000000013670      0x1ab binaries/xsh_cat.o
 .debug_abbrev  0x000000000001381b      0x17c binaries/xsh_clear.o
 .debug_abbrev  0x0000000000013997      0x1a9 binaries/xsh_date.o
 .debug_abbrev  0x0000000000013b40      0x198 binaries/xsh_devdump.o
 .debug_abbrev  0x0000000000013cd8      0x18b binaries/xsh_echo.o
 .debug_abbrev  0x0000000000013e63      0x15e binaries/xsh_exit.o
 .debug_abbrev  0x0000000000013fc1      0x1a9 binaries/xsh_help.o
 .debug_abbrev  0x000000000001416a      0x19a binaries/xsh_ipaddr.o
 .debug_abbrev  0x0000000000014304      0x19a binaries/xsh_kill.o
 .debug_abbrev  0x000000000001449e      0x1c3 binaries/xsh_memdump.o
 .debug_abbrev  0x0000000000014661      0x1e2 binaries/xsh_memstat.o
 .debug_abbrev  0x0000000000014843      0x1b8 binaries/xsh_ping.o
 .debug_abbrev  0x00000000000149fb      0x1a7 binaries/xsh_ps.o
 .debug_abbrev  0x0000000000014ba2      0x1ab binaries/xsh_sleep.o
 .debug_abbrev  0x0000000000014d4d      0x1b6 binaries/xsh_udpdump.o
 .debug_abbrev  0x0000000000014f03      0x1f6 binaries/xsh_udpecho.o
 .debug_abbrev  0x00000000000150f9      0x1ba binaries/xsh_udpeserver.o
 .debug_abbrev  0x00000000000152b3      0x1d6 binaries/xsh_uptime.o
 .debug_abbrev  0x0000000000015489       0x14 binaries/clkdisp.o
 .debug_abbrev  0x000000000001549d       0x14 binaries/ctxsw.o
 .debug_abbrev  0x00000000000154b1       0x14 binaries/intr.o
 .debug_abbrev  0x00000000000154c5       0x14 binaries/ttydispatch.o
 .debug_abbrev  0x00000000000154d9       0x14 binaries/ethdispatch.o

.debug_aranges  0x0000000000000000     0x1c50
 .debug_aranges
                0x0000000000000000       0x20 binaries/start.o
 .debug_aranges
                0x0000000000000020       0x20 binaries/ascdate.o
 .debug_aranges
                0x0000000000000040       0x20 binaries/bufinit.o
 .debug_aranges
                0x0000000000000060       0x20 binaries/cbreg.o
 .debug_aranges
                0x0000000000000080       0x20 binaries/chprio.o
 .debug_aranges
                0x00000000000000a0       0x20 binaries/clkhandler.o
 .debug_aranges
                0x00000000000000c0       0x20 binaries/clkinit.o
 .debug_aranges
                0x00000000000000e0       0x20 binaries/close.o
 .debug_aranges
                0x0000000000000100       0x18 binaries/conf.o
 .debug_aranges
                0x0000000000000118       0x20 binaries/control.o
 .debug_aranges
                0x0000000000000138       0x20 binaries/create.o
 .debug_aranges
                0x0000000000000158       0x20 binaries/early_imr.o
 .debug_aranges
                0x0000000000000178       0x20 binaries/evec.o
 .debug_aranges
                0x0000000000000198       0x20 binaries/freebuf.o
 .debug_aranges
                0x00000000000001b8       0x20 binaries/freemem.o
 .debug_aranges
                0x00000000000001d8       0x20 binaries/getbuf.o
 .debug_aranges
                0x00000000000001f8       0x20 binaries/getc.o
 .debug_aranges
                0x0000000000000218       0x20 binaries/getdev.o
 .debug_aranges
                0x0000000000000238       0x20 binaries/getitem.o
 .debug_aranges
                0x0000000000000258       0x20 binaries/getmem.o
 .debug_aranges
                0x0000000000000278       0x20 binaries/getpid.o
 .debug_aranges
                0x0000000000000298       0x20 binaries/getprio.o
 .debug_aranges
                0x00000000000002b8       0x20 binaries/getstk.o
 .debug_aranges
                0x00000000000002d8       0x20 binaries/gettime.o
 .debug_aranges
                0x00000000000002f8       0x20 binaries/getutime.o
 .debug_aranges
                0x0000000000000318       0x20 binaries/i386-stub.o
 .debug_aranges
                0x0000000000000338       0x20 binaries/init.o
 .debug_aranges
                0x0000000000000358       0x20 binaries/initialize.o
 .debug_aranges
                0x0000000000000378       0x20 binaries/insert.o
 .debug_aranges
                0x0000000000000398       0x20 binaries/insertd.o
 .debug_aranges
                0x00000000000003b8       0x20 binaries/ioerr.o
 .debug_aranges
                0x00000000000003d8       0x20 binaries/ionull.o
 .debug_aranges
                0x00000000000003f8       0x20 binaries/kill.o
 .debug_aranges
                0x0000000000000418       0x20 binaries/kprintf.o
 .debug_aranges
                0x0000000000000438       0x20 binaries/main.o
 .debug_aranges
                0x0000000000000458       0x20 binaries/mark.o
 .debug_aranges
                0x0000000000000478       0x20 binaries/meminit.o
 .debug_aranges
                0x0000000000000498       0x20 binaries/mkbufpool.o
 .debug_aranges
                0x00000000000004b8       0x20 binaries/newqueue.o
 .debug_aranges
                0x00000000000004d8       0x20 binaries/open.o
 .debug_aranges
                0x00000000000004f8       0x20 binaries/panic.o
 .debug_aranges
                0x0000000000000518       0x20 binaries/pci.o
 .debug_aranges
                0x0000000000000538       0x20 binaries/platinit.o
 .debug_aranges
                0x0000000000000558       0x20 binaries/ptclear.o
 .debug_aranges
                0x0000000000000578       0x20 binaries/ptcount.o
 .debug_aranges
                0x0000000000000598       0x20 binaries/ptcreate.o
 .debug_aranges
                0x00000000000005b8       0x20 binaries/ptdelete.o
 .debug_aranges
                0x00000000000005d8       0x20 binaries/ptinit.o
 .debug_aranges
                0x00000000000005f8       0x20 binaries/ptrecv.o
 .debug_aranges
                0x0000000000000618       0x20 binaries/ptreset.o
 .debug_aranges
                0x0000000000000638       0x20 binaries/ptsend.o
 .debug_aranges
                0x0000000000000658       0x20 binaries/putc.o
 .debug_aranges
                0x0000000000000678       0x20 binaries/quark_irq.o
 .debug_aranges
                0x0000000000000698       0x20 binaries/quark_pdat.o
 .debug_aranges
                0x00000000000006b8       0x20 binaries/queue.o
 .debug_aranges
                0x00000000000006d8       0x20 binaries/read.o
 .debug_aranges
                0x00000000000006f8       0x20 binaries/ready.o
 .debug_aranges
                0x0000000000000718       0x20 binaries/receive.o
 .debug_aranges
                0x0000000000000738       0x20 binaries/receiveq.o
 .debug_aranges
                0x0000000000000758       0x20 binaries/recvclr.o
 .debug_aranges
                0x0000000000000778       0x20 binaries/recvtime.o
 .debug_aranges
                0x0000000000000798       0x20 binaries/resched.o
 .debug_aranges
                0x00000000000007b8       0x20 binaries/resume.o
 .debug_aranges
                0x00000000000007d8       0x20 binaries/seek.o
 .debug_aranges
                0x00000000000007f8       0x20 binaries/semcount.o
 .debug_aranges
                0x0000000000000818       0x20 binaries/semcreate.o
 .debug_aranges
                0x0000000000000838       0x20 binaries/semdelete.o
 .debug_aranges
                0x0000000000000858       0x20 binaries/semreset.o
 .debug_aranges
                0x0000000000000878       0x20 binaries/sendblk.o
 .debug_aranges
                0x0000000000000898       0x20 binaries/send.o
 .debug_aranges
                0x00000000000008b8       0x20 binaries/sendq.o
 .debug_aranges
                0x00000000000008d8       0x20 binaries/signal.o
 .debug_aranges
                0x00000000000008f8       0x20 binaries/signaln.o
 .debug_aranges
                0x0000000000000918       0x20 binaries/sleep.o
 .debug_aranges
                0x0000000000000938       0x20 binaries/suspend.o
 .debug_aranges
                0x0000000000000958       0x20 binaries/unsleep.o
 .debug_aranges
                0x0000000000000978       0x20 binaries/userret.o
 .debug_aranges
                0x0000000000000998       0x20 binaries/wait.o
 .debug_aranges
                0x00000000000009b8       0x20 binaries/wakeup.o
 .debug_aranges
                0x00000000000009d8       0x20 binaries/write.o
 .debug_aranges
                0x00000000000009f8       0x20 binaries/xdone.o
 .debug_aranges
                0x0000000000000a18       0x20 binaries/yield.o
 .debug_aranges
                0x0000000000000a38       0x20 binaries/abs.o
 .debug_aranges
                0x0000000000000a58       0x20 binaries/atoi.o
 .debug_aranges
                0x0000000000000a78       0x20 binaries/atol.o
 .debug_aranges
                0x0000000000000a98       0x20 binaries/bzero.o
 .debug_aranges
                0x0000000000000ab8       0x18 binaries/ctype_.o
 .debug_aranges
                0x0000000000000ad0       0x20 binaries/doprnt.o
 .debug_aranges
                0x0000000000000af0       0x20 binaries/doscan.o
 .debug_aranges
                0x0000000000000b10       0x20 binaries/fdoprnt.o
 .debug_aranges
                0x0000000000000b30       0x20 binaries/fgetc.o
 .debug_aranges
                0x0000000000000b50       0x20 binaries/fgets.o
 .debug_aranges
                0x0000000000000b70       0x20 binaries/fprintf.o
 .debug_aranges
                0x0000000000000b90       0x20 binaries/fputc.o
 .debug_aranges
                0x0000000000000bb0       0x20 binaries/fputs.o
 .debug_aranges
                0x0000000000000bd0       0x20 binaries/fscanf.o
 .debug_aranges
                0x0000000000000bf0       0x20 binaries/getchar.o
 .debug_aranges
                0x0000000000000c10       0x20 binaries/labs.o
 .debug_aranges
                0x0000000000000c30       0x20 binaries/memchr.o
 .debug_aranges
                0x0000000000000c50       0x20 binaries/memcmp.o
 .debug_aranges
                0x0000000000000c70       0x20 binaries/memcpy.o
 .debug_aranges
                0x0000000000000c90       0x20 binaries/memset.o
 .debug_aranges
                0x0000000000000cb0       0x20 binaries/printf.o
 .debug_aranges
                0x0000000000000cd0       0x20 binaries/putchar.o
 .debug_aranges
                0x0000000000000cf0       0x20 binaries/qsort.o
 .debug_aranges
                0x0000000000000d10       0x20 binaries/rand.o
 .debug_aranges
                0x0000000000000d30       0x20 binaries/sprintf.o
 .debug_aranges
                0x0000000000000d50       0x20 binaries/sscanf.o
 .debug_aranges
                0x0000000000000d70       0x20 binaries/strchr.o
 .debug_aranges
                0x0000000000000d90       0x20 binaries/strcmp.o
 .debug_aranges
                0x0000000000000db0       0x20 binaries/strcpy.o
 .debug_aranges
                0x0000000000000dd0       0x20 binaries/strlen.o
 .debug_aranges
                0x0000000000000df0       0x20 binaries/strncat.o
 .debug_aranges
                0x0000000000000e10       0x20 binaries/strncmp.o
 .debug_aranges
                0x0000000000000e30       0x20 binaries/strncpy.o
 .debug_aranges
                0x0000000000000e50       0x20 binaries/strnlen.o
 .debug_aranges
                0x0000000000000e70       0x20 binaries/strrchr.o
 .debug_aranges
                0x0000000000000e90       0x20 binaries/strstr.o
 .debug_aranges
                0x0000000000000eb0       0x20 binaries/ttycontrol.o
 .debug_aranges
                0x0000000000000ed0       0x20 binaries/ttygetc.o
 .debug_aranges
                0x0000000000000ef0       0x20 binaries/ttyhandle_in.o
 .debug_aranges
                0x0000000000000f10       0x20 binaries/ttyhandle_out.o
 .debug_aranges
                0x0000000000000f30       0x20 binaries/ttyhandler.o
 .debug_aranges
                0x0000000000000f50       0x20 binaries/ttyinit.o
 .debug_aranges
                0x0000000000000f70       0x20 binaries/ttykickout.o
 .debug_aranges
                0x0000000000000f90       0x20 binaries/ttyputc.o
 .debug_aranges
                0x0000000000000fb0       0x20 binaries/ttyread.o
 .debug_aranges
                0x0000000000000fd0       0x20 binaries/ttywrite.o
 .debug_aranges
                0x0000000000000ff0       0x20 binaries/mount.o
 .debug_aranges
                0x0000000000001010       0x20 binaries/naminit.o
 .debug_aranges
                0x0000000000001030       0x20 binaries/nammap.o
 .debug_aranges
                0x0000000000001050       0x20 binaries/namopen.o
 .debug_aranges
                0x0000000000001070       0x20 binaries/colon2mac.o
 .debug_aranges
                0x0000000000001090       0x20 binaries/ethcontrol.o
 .debug_aranges
                0x00000000000010b0       0x20 binaries/ethhandler.o
 .debug_aranges
                0x00000000000010d0       0x20 binaries/ethinit.o
 .debug_aranges
                0x00000000000010f0       0x20 binaries/ethmcast.o
 .debug_aranges
                0x0000000000001110       0x20 binaries/ethread.o
 .debug_aranges
                0x0000000000001130       0x20 binaries/ethwrite.o
 .debug_aranges
                0x0000000000001150       0x20 binaries/rdsbufalloc.o
 .debug_aranges
                0x0000000000001170       0x20 binaries/rdsclose.o
 .debug_aranges
                0x0000000000001190       0x20 binaries/rdscomm.o
 .debug_aranges
                0x00000000000011b0       0x20 binaries/rdscontrol.o
 .debug_aranges
                0x00000000000011d0       0x20 binaries/rdsinit.o
 .debug_aranges
                0x00000000000011f0       0x20 binaries/rdsopen.o
 .debug_aranges
                0x0000000000001210       0x20 binaries/rdsprocess.o
 .debug_aranges
                0x0000000000001230       0x20 binaries/rdsread.o
 .debug_aranges
                0x0000000000001250       0x20 binaries/rdswrite.o
 .debug_aranges
                0x0000000000001270       0x20 binaries/ramclose.o
 .debug_aranges
                0x0000000000001290       0x20 binaries/raminit.o
 .debug_aranges
                0x00000000000012b0       0x20 binaries/ramopen.o
 .debug_aranges
                0x00000000000012d0       0x20 binaries/ramread.o
 .debug_aranges
                0x00000000000012f0       0x20 binaries/ramwrite.o
 .debug_aranges
                0x0000000000001310       0x20 binaries/lfdballoc.o
 .debug_aranges
                0x0000000000001330       0x20 binaries/lfdbfree.o
 .debug_aranges
                0x0000000000001350       0x20 binaries/lfflush.o
 .debug_aranges
                0x0000000000001370       0x20 binaries/lfgetmode.o
 .debug_aranges
                0x0000000000001390       0x20 binaries/lfiballoc.o
 .debug_aranges
                0x00000000000013b0       0x20 binaries/lfibclear.o
 .debug_aranges
                0x00000000000013d0       0x20 binaries/lfibget.o
 .debug_aranges
                0x00000000000013f0       0x20 binaries/lfibput.o
 .debug_aranges
                0x0000000000001410       0x20 binaries/lflclose.o
 .debug_aranges
                0x0000000000001430       0x20 binaries/lflcontrol.o
 .debug_aranges
                0x0000000000001450       0x20 binaries/lflgetc.o
 .debug_aranges
                0x0000000000001470       0x20 binaries/lflinit.o
 .debug_aranges
                0x0000000000001490       0x20 binaries/lflputc.o
 .debug_aranges
                0x00000000000014b0       0x20 binaries/lflread.o
 .debug_aranges
                0x00000000000014d0       0x20 binaries/lflseek.o
 .debug_aranges
                0x00000000000014f0       0x20 binaries/lflwrite.o
 .debug_aranges
                0x0000000000001510       0x20 binaries/lfsckfmt.o
 .debug_aranges
                0x0000000000001530       0x20 binaries/lfscreate.o
 .debug_aranges
                0x0000000000001550       0x20 binaries/lfsetup.o
 .debug_aranges
                0x0000000000001570       0x20 binaries/lfsinit.o
 .debug_aranges
                0x0000000000001590       0x20 binaries/lfsopen.o
 .debug_aranges
                0x00000000000015b0       0x20 binaries/lftruncate.o
 .debug_aranges
                0x00000000000015d0       0x20 binaries/rflclose.o
 .debug_aranges
                0x00000000000015f0       0x20 binaries/rflgetc.o
 .debug_aranges
                0x0000000000001610       0x20 binaries/rflinit.o
 .debug_aranges
                0x0000000000001630       0x20 binaries/rflputc.o
 .debug_aranges
                0x0000000000001650       0x20 binaries/rflread.o
 .debug_aranges
                0x0000000000001670       0x20 binaries/rflseek.o
 .debug_aranges
                0x0000000000001690       0x20 binaries/rflwrite.o
 .debug_aranges
                0x00000000000016b0       0x20 binaries/rfscomm.o
 .debug_aranges
                0x00000000000016d0       0x20 binaries/rfscontrol.o
 .debug_aranges
                0x00000000000016f0       0x20 binaries/rfsgetmode.o
 .debug_aranges
                0x0000000000001710       0x20 binaries/rfsinit.o
 .debug_aranges
                0x0000000000001730       0x20 binaries/rfsndmsg.o
 .debug_aranges
                0x0000000000001750       0x20 binaries/rfsopen.o
 .debug_aranges
                0x0000000000001770       0x20 binaries/arp.o
 .debug_aranges
                0x0000000000001790       0x20 binaries/dhcp.o
 .debug_aranges
                0x00000000000017b0       0x20 binaries/dot2ip.o
 .debug_aranges
                0x00000000000017d0       0x20 binaries/hexdump.o
 .debug_aranges
                0x00000000000017f0       0x20 binaries/icmp.o
 .debug_aranges
                0x0000000000001810       0x20 binaries/ip.o
 .debug_aranges
                0x0000000000001830       0x20 binaries/net.o
 .debug_aranges
                0x0000000000001850       0x20 binaries/netstart.o
 .debug_aranges
                0x0000000000001870       0x20 binaries/pdump.o
 .debug_aranges
                0x0000000000001890       0x20 binaries/tftp.o
 .debug_aranges
                0x00000000000018b0       0x20 binaries/udp.o
 .debug_aranges
                0x00000000000018d0       0x20 binaries/addargs.o
 .debug_aranges
                0x00000000000018f0       0x20 binaries/lexan.o
 .debug_aranges
                0x0000000000001910       0x20 binaries/shell.o
 .debug_aranges
                0x0000000000001930       0x20 binaries/xsh_argecho.o
 .debug_aranges
                0x0000000000001950       0x20 binaries/xsh_arp.o
 .debug_aranges
                0x0000000000001970       0x20 binaries/xsh_cat.o
 .debug_aranges
                0x0000000000001990       0x20 binaries/xsh_clear.o
 .debug_aranges
                0x00000000000019b0       0x20 binaries/xsh_date.o
 .debug_aranges
                0x00000000000019d0       0x20 binaries/xsh_devdump.o
 .debug_aranges
                0x00000000000019f0       0x20 binaries/xsh_echo.o
 .debug_aranges
                0x0000000000001a10       0x20 binaries/xsh_exit.o
 .debug_aranges
                0x0000000000001a30       0x20 binaries/xsh_help.o
 .debug_aranges
                0x0000000000001a50       0x20 binaries/xsh_ipaddr.o
 .debug_aranges
                0x0000000000001a70       0x20 binaries/xsh_kill.o
 .debug_aranges
                0x0000000000001a90       0x20 binaries/xsh_memdump.o
 .debug_aranges
                0x0000000000001ab0       0x20 binaries/xsh_memstat.o
 .debug_aranges
                0x0000000000001ad0       0x20 binaries/xsh_ping.o
 .debug_aranges
                0x0000000000001af0       0x20 binaries/xsh_ps.o
 .debug_aranges
                0x0000000000001b10       0x20 binaries/xsh_sleep.o
 .debug_aranges
                0x0000000000001b30       0x20 binaries/xsh_udpdump.o
 .debug_aranges
                0x0000000000001b50       0x20 binaries/xsh_udpecho.o
 .debug_aranges
                0x0000000000001b70       0x20 binaries/xsh_udpeserver.o
 .debug_aranges
                0x0000000000001b90       0x20 binaries/xsh_uptime.o
 .debug_aranges
                0x0000000000001bb0       0x20 binaries/clkdisp.o
 .debug_aranges
                0x0000000000001bd0       0x20 binaries/ctxsw.o
 .debug_aranges
                0x0000000000001bf0       0x20 binaries/intr.o
 .debug_aranges
                0x0000000000001c10       0x20 binaries/ttydispatch.o
 .debug_aranges
                0x0000000000001c30       0x20 binaries/ethdispatch.o

.debug_str      0x0000000000000000     0x3c30
 .debug_str     0x0000000000000000       0x46 binaries/start.o
 .debug_str     0x0000000000000046      0xc10 binaries/ascdate.o
                                        0xcad (size before relaxing)
 .debug_str     0x0000000000000c56       0x1c binaries/bufinit.o
                                        0xc42 (size before relaxing)
 .debug_str     0x0000000000000c72       0x3e binaries/cbreg.o
                                        0xc62 (size before relaxing)
 .debug_str     0x0000000000000cb0       0x2a binaries/chprio.o
                                        0xc6c (size before relaxing)
 .debug_str     0x0000000000000cda       0x3b binaries/clkhandler.o
                                        0xc5a (size before relaxing)
 .debug_str     0x0000000000000d15       0x40 binaries/clkinit.o
                                        0xc5f (size before relaxing)
 .debug_str     0x0000000000000d55       0x27 binaries/close.o
                                        0xc71 (size before relaxing)
 .debug_str     0x0000000000000d7c       0x11 binaries/conf.o
                                        0xc30 (size before relaxing)
 .debug_str     0x0000000000000d8d       0x1e binaries/control.o
                                        0xc84 (size before relaxing)
 .debug_str     0x0000000000000dab       0x61 binaries/create.o
                                        0xcaf (size before relaxing)
 .debug_str     0x0000000000000e0c      0x18a binaries/early_imr.o
                                        0xda9 (size before relaxing)
 .debug_str     0x0000000000000f96       0xac binaries/evec.o
                                        0xd0b (size before relaxing)
 .debug_str     0x0000000000001042       0x38 binaries/freebuf.o
                                        0xc7c (size before relaxing)
 .debug_str     0x000000000000107a       0x2b binaries/freemem.o
                                        0xc7f (size before relaxing)
 .debug_str     0x00000000000010a5       0x21 binaries/getbuf.o
                                        0xc6f (size before relaxing)
 .debug_str     0x00000000000010c6       0x11 binaries/getc.o
                                        0xc6f (size before relaxing)
 .debug_str     0x00000000000010d7       0x2a binaries/getdev.o
                                        0xc66 (size before relaxing)
 .debug_str     0x0000000000001101       0x2d binaries/getitem.o
                                        0xc60 (size before relaxing)
 .debug_str     0x000000000000112e       0x28 binaries/getmem.o
                                        0xc70 (size before relaxing)
 .debug_str     0x0000000000001156       0x13 binaries/getpid.o
                                        0xc39 (size before relaxing)
 .debug_str     0x0000000000001169       0x1c binaries/getprio.o
                                        0xc65 (size before relaxing)
 .debug_str     0x0000000000001185       0x21 binaries/getstk.o
                                        0xc75 (size before relaxing)
 .debug_str     0x00000000000011a6       0x2c binaries/gettime.o
                                        0xc59 (size before relaxing)
 .debug_str     0x00000000000011d2       0x75 binaries/getutime.o
                                        0xcb7 (size before relaxing)
 .debug_str     0x0000000000001247      0x243 binaries/i386-stub.o
                                        0xe9b (size before relaxing)
 .debug_str     0x000000000000148a       0x11 binaries/init.o
                                        0xc6f (size before relaxing)
 .debug_str     0x000000000000149b       0x65 binaries/initialize.o
                                        0xcd8 (size before relaxing)
 .debug_str     0x0000000000001500       0x1a binaries/insert.o
                                        0xc4a (size before relaxing)
 .debug_str     0x000000000000151a       0x1c binaries/insertd.o
                                        0xc4c (size before relaxing)
 .debug_str     0x0000000000001536       0x18 binaries/ioerr.o
                                        0xc37 (size before relaxing)
 .debug_str     0x000000000000154e       0x1a binaries/ionull.o
                                        0xc39 (size before relaxing)
 .debug_str     0x0000000000001568       0x1f binaries/kill.o
                                        0xc91 (size before relaxing)
 .debug_str     0x0000000000001587       0x69 binaries/kprintf.o
                                        0xcde (size before relaxing)
 .debug_str     0x00000000000015f0       0x8d binaries/main.o
                                        0xce5 (size before relaxing)
 .debug_str     0x000000000000167d       0x29 binaries/mark.o
                                        0xc5b (size before relaxing)
 .debug_str     0x00000000000016a6      0x1ba binaries/meminit.o
                                        0xe13 (size before relaxing)
 .debug_str     0x0000000000001860       0x2f binaries/mkbufpool.o
                                        0xc89 (size before relaxing)
 .debug_str     0x000000000000188f       0x1d binaries/newqueue.o
                                        0xc45 (size before relaxing)
 .debug_str     0x00000000000018ac       0x11 binaries/open.o
                                        0xc79 (size before relaxing)
 .debug_str     0x00000000000018bd       0x12 binaries/panic.o
                                        0xc47 (size before relaxing)
 .debug_str     0x00000000000018cf      0x23e binaries/pci.o
                                        0xeed (size before relaxing)
 .debug_str     0x0000000000001b0d       0x27 binaries/platinit.o
                                        0xca7 (size before relaxing)
 .debug_str     0x0000000000001b34       0x46 binaries/ptclear.o
                                        0xc6b (size before relaxing)
 .debug_str     0x0000000000001b7a       0x33 binaries/ptcount.o
                                        0xc7b (size before relaxing)
 .debug_str     0x0000000000001bad       0x24 binaries/ptcreate.o
                                        0xc7e (size before relaxing)
 .debug_str     0x0000000000001bd1       0x23 binaries/ptdelete.o
                                        0xc7d (size before relaxing)
 .debug_str     0x0000000000001bf4       0x22 binaries/ptinit.o
                                        0xc60 (size before relaxing)
 .debug_str     0x0000000000001c16       0x22 binaries/ptrecv.o
                                        0xc77 (size before relaxing)
 .debug_str     0x0000000000001c38       0x1c binaries/ptreset.o
                                        0xc7b (size before relaxing)
 .debug_str     0x0000000000001c54       0x23 binaries/ptsend.o
                                        0xc8e (size before relaxing)
 .debug_str     0x0000000000001c77       0x11 binaries/putc.o
                                        0xc6f (size before relaxing)
 .debug_str     0x0000000000001c88       0x23 binaries/quark_irq.o
                                        0xc96 (size before relaxing)
 .debug_str     0x0000000000001cab       0xfd binaries/quark_pdat.o
                                        0xd57 (size before relaxing)
 .debug_str     0x0000000000001da8       0x1a binaries/queue.o
                                        0xc54 (size before relaxing)
 .debug_str     0x0000000000001dc2       0x11 binaries/read.o
                                        0xc7c (size before relaxing)
 .debug_str     0x0000000000001dd3       0x18 binaries/ready.o
                                        0xc53 (size before relaxing)
 .debug_str     0x0000000000001deb       0x26 binaries/receive.o
                                        0xc86 (size before relaxing)
 .debug_str     0x0000000000001e11       0x15 binaries/receiveq.o
                                        0xc90 (size before relaxing)
 .debug_str     0x0000000000001e26       0x1c binaries/recvclr.o
                                        0xc5e (size before relaxing)
 .debug_str     0x0000000000001e42       0x26 binaries/recvtime.o
                                        0xc78 (size before relaxing)
 .debug_str     0x0000000000001e68       0x33 binaries/resched.o
                                        0xc7c (size before relaxing)
 .debug_str     0x0000000000001e9b       0x13 binaries/resume.o
                                        0xc67 (size before relaxing)
 .debug_str     0x0000000000001eae       0x11 binaries/seek.o
                                        0xc6f (size before relaxing)
 .debug_str     0x0000000000001ebf       0x1b binaries/semcount.o
                                        0xc6e (size before relaxing)
 .debug_str     0x0000000000001eda       0x25 binaries/semcreate.o
                                        0xc71 (size before relaxing)
 .debug_str     0x0000000000001eff       0x16 binaries/semdelete.o
                                        0xc87 (size before relaxing)
 .debug_str     0x0000000000001f15       0x1e binaries/semreset.o
                                        0xc94 (size before relaxing)
 .debug_str     0x0000000000001f33       0x14 binaries/sendblk.o
                                        0xc7a (size before relaxing)
 .debug_str     0x0000000000001f47       0x11 binaries/send.o
                                        0xc6e (size before relaxing)
 .debug_str     0x0000000000001f58       0x12 binaries/sendq.o
                                        0xc7e (size before relaxing)
 .debug_str     0x0000000000001f6a       0x13 binaries/signal.o
                                        0xc73 (size before relaxing)
 .debug_str     0x0000000000001f7d       0x1c binaries/signaln.o
                                        0xc88 (size before relaxing)
 .debug_str     0x0000000000001f99       0x18 binaries/sleep.o
                                        0xc80 (size before relaxing)
 .debug_str     0x0000000000001fb1       0x1c binaries/suspend.o
                                        0xc7b (size before relaxing)
 .debug_str     0x0000000000001fcd       0x1c binaries/unsleep.o
                                        0xc75 (size before relaxing)
 .debug_str     0x0000000000001fe9       0x1c binaries/userret.o
                                        0xc47 (size before relaxing)
 .debug_str     0x0000000000002005       0x11 binaries/wait.o
                                        0xc77 (size before relaxing)
 .debug_str     0x0000000000002016       0x13 binaries/wakeup.o
                                        0xc54 (size before relaxing)
 .debug_str     0x0000000000002029       0x12 binaries/write.o
                                        0xc7e (size before relaxing)
 .debug_str     0x000000000000203b       0x17 binaries/xdone.o
                                        0xc44 (size before relaxing)
 .debug_str     0x0000000000002052       0x12 binaries/yield.o
                                        0xc64 (size before relaxing)
 .debug_str     0x0000000000002064        0xd binaries/abs.o
                                         0x7c (size before relaxing)
 .debug_str     0x0000000000002071       0x13 binaries/atoi.o
                                         0x87 (size before relaxing)
 .debug_str     0x0000000000002084       0x13 binaries/atol.o
                                         0x90 (size before relaxing)
 .debug_str     0x0000000000002097       0x15 binaries/bzero.o
                                         0x89 (size before relaxing)
 .debug_str     0x00000000000020ac       0x18 binaries/ctype_.o
                                         0x99 (size before relaxing)
 .debug_str     0x00000000000020c4       0x6e binaries/doprnt.o
                                        0x12b (size before relaxing)
 .debug_str     0x0000000000002132       0x85 binaries/doscan.o
                                        0x13e (size before relaxing)
 .debug_str     0x00000000000021b7       0x1f binaries/fdoprnt.o
                                        0x132 (size before relaxing)
 .debug_str     0x00000000000021d6       0x1c binaries/fgetc.o
                                         0x90 (size before relaxing)
 .debug_str     0x00000000000021f2       0x15 binaries/fgets.o
                                         0x8e (size before relaxing)
 .debug_str     0x0000000000002207       0x11 binaries/fprintf.o
                                        0xc68 (size before relaxing)
 .debug_str     0x0000000000002218       0x15 binaries/fputc.o
                                         0x89 (size before relaxing)
 .debug_str     0x000000000000222d       0x15 binaries/fputs.o
                                         0x8e (size before relaxing)
 .debug_str     0x0000000000002242       0x1c binaries/fscanf.o
                                         0xb0 (size before relaxing)
 .debug_str     0x000000000000225e       0x19 binaries/getchar.o
                                        0xc3e (size before relaxing)
 .debug_str     0x0000000000002277       0x13 binaries/labs.o
                                         0x8b (size before relaxing)
 .debug_str     0x000000000000228a       0x17 binaries/memchr.o
                                         0x8b (size before relaxing)
 .debug_str     0x00000000000022a1       0x10 binaries/memcmp.o
                                         0x94 (size before relaxing)
 .debug_str     0x00000000000022b1       0x10 binaries/memcpy.o
                                         0x8b (size before relaxing)
 .debug_str     0x00000000000022c1       0x10 binaries/memset.o
                                         0x8b (size before relaxing)
 .debug_str     0x00000000000022d1       0x10 binaries/printf.o
                                        0xc66 (size before relaxing)
 .debug_str     0x00000000000022e1       0x19 binaries/putchar.o
                                        0xc3e (size before relaxing)
 .debug_str     0x00000000000022fa       0x32 binaries/qsort.o
                                         0xb9 (size before relaxing)
 .debug_str     0x000000000000232c       0x1a binaries/rand.o
                                         0xa0 (size before relaxing)
 .debug_str     0x0000000000002346       0x1d binaries/sprintf.o
                                         0xbc (size before relaxing)
 .debug_str     0x0000000000002363       0x2d binaries/sscanf.o
                                         0xae (size before relaxing)
 .debug_str     0x0000000000002390       0x17 binaries/strchr.o
                                         0x8b (size before relaxing)
 .debug_str     0x00000000000023a7       0x21 binaries/strcmp.o
                                         0x95 (size before relaxing)
 .debug_str     0x00000000000023c8       0x10 binaries/strcpy.o
                                         0x8b (size before relaxing)
 .debug_str     0x00000000000023d8       0x17 binaries/strlen.o
                                         0x8b (size before relaxing)
 .debug_str     0x00000000000023ef       0x19 binaries/strncat.o
                                         0x8d (size before relaxing)
 .debug_str     0x0000000000002408       0x11 binaries/strncmp.o
                                         0x8d (size before relaxing)
 .debug_str     0x0000000000002419       0x11 binaries/strncpy.o
                                         0x8d (size before relaxing)
 .debug_str     0x000000000000242a       0x19 binaries/strnlen.o
                                         0x9a (size before relaxing)
 .debug_str     0x0000000000002443       0x19 binaries/strrchr.o
                                         0x8d (size before relaxing)
 .debug_str     0x000000000000245c       0x17 binaries/strstr.o
                                         0x8b (size before relaxing)
 .debug_str     0x0000000000002473       0x2c binaries/ttycontrol.o
                                        0xc76 (size before relaxing)
 .debug_str     0x000000000000249f       0x20 binaries/ttygetc.o
                                        0xc51 (size before relaxing)
 .debug_str     0x00000000000024bf       0x56 binaries/ttyhandle_in.o
                                        0xca5 (size before relaxing)
 .debug_str     0x0000000000002515       0x3a binaries/ttyhandle_out.o
                                        0xc8f (size before relaxing)
 .debug_str     0x000000000000254f       0x26 binaries/ttyhandler.o
                                        0xc93 (size before relaxing)
 .debug_str     0x0000000000002575       0x25 binaries/ttyinit.o
                                        0xc81 (size before relaxing)
 .debug_str     0x000000000000259a       0x1b binaries/ttykickout.o
                                        0xc5e (size before relaxing)
 .debug_str     0x00000000000025b5       0x20 binaries/ttyputc.o
                                        0xc6e (size before relaxing)
 .debug_str     0x00000000000025d5       0x2e binaries/ttyread.o
                                        0xc7c (size before relaxing)
 .debug_str     0x0000000000002603       0x22 binaries/ttywrite.o
                                        0xc5b (size before relaxing)
 .debug_str     0x0000000000002625       0x3b binaries/mount.o
                                        0xc9a (size before relaxing)
 .debug_str     0x0000000000002660       0x36 binaries/naminit.o
                                        0xc7d (size before relaxing)
 .debug_str     0x0000000000002696       0x6b binaries/nammap.o
                                        0xcc2 (size before relaxing)
 .debug_str     0x0000000000002701       0x20 binaries/namopen.o
                                        0xc6b (size before relaxing)
 .debug_str     0x0000000000002721       0x24 binaries/colon2mac.o
                                        0xc51 (size before relaxing)
 .debug_str     0x0000000000002745       0x4a binaries/ethcontrol.o
                                        0xc8d (size before relaxing)
 .debug_str     0x000000000000278f      0x10d binaries/ethhandler.o
                                        0xd55 (size before relaxing)
 .debug_str     0x000000000000289c       0x78 binaries/ethinit.o
                                        0xdfa (size before relaxing)
 .debug_str     0x0000000000002914       0x25 binaries/ethmcast.o
                                        0xd1d (size before relaxing)
 .debug_str     0x0000000000002939       0x34 binaries/ethread.o
                                        0xcbb (size before relaxing)
 .debug_str     0x000000000000296d       0x22 binaries/ethwrite.o
                                        0xd30 (size before relaxing)
 .debug_str     0x000000000000298f       0x2e binaries/rdsbufalloc.o
                                        0xc67 (size before relaxing)
 .debug_str     0x00000000000029bd       0x29 binaries/rdsclose.o
                                        0xc5f (size before relaxing)
 .debug_str     0x00000000000029e6       0x4f binaries/rdscomm.o
                                        0xcc2 (size before relaxing)
 .debug_str     0x0000000000002a35       0x43 binaries/rdscontrol.o
                                        0xcf1 (size before relaxing)
 .debug_str     0x0000000000002a78       0x28 binaries/rdsinit.o
                                        0xc8f (size before relaxing)
 .debug_str     0x0000000000002aa0       0x4b binaries/rdsopen.o
                                        0xcb2 (size before relaxing)
 .debug_str     0x0000000000002aeb       0x4d binaries/rdsprocess.o
                                        0xcd7 (size before relaxing)
 .debug_str     0x0000000000002b38       0x20 binaries/rdsread.o
                                        0xc96 (size before relaxing)
 .debug_str     0x0000000000002b58       0x28 binaries/rdswrite.o
                                        0xc9b (size before relaxing)
 .debug_str     0x0000000000002b80       0x22 binaries/ramclose.o
                                        0xc48 (size before relaxing)
 .debug_str     0x0000000000002ba2       0x28 binaries/raminit.o
                                        0xc5a (size before relaxing)
 .debug_str     0x0000000000002bca       0x20 binaries/ramopen.o
                                        0xc50 (size before relaxing)
 .debug_str     0x0000000000002bea       0x25 binaries/ramread.o
                                        0xc64 (size before relaxing)
 .debug_str     0x0000000000002c0f       0x22 binaries/ramwrite.o
                                        0xc66 (size before relaxing)
 .debug_str     0x0000000000002c31       0x41 binaries/lfdballoc.o
                                        0xc8a (size before relaxing)
 .debug_str     0x0000000000002c72       0x21 binaries/lfdbfree.o
                                        0xc76 (size before relaxing)
 .debug_str     0x0000000000002c93       0x2e binaries/lfflush.o
                                        0xc5a (size before relaxing)
 .debug_str     0x0000000000002cc1       0x2a binaries/lfgetmode.o
                                        0xc4e (size before relaxing)
 .debug_str     0x0000000000002ceb       0x32 binaries/lfiballoc.o
                                        0xc64 (size before relaxing)
 .debug_str     0x0000000000002d1d       0x2a binaries/lfibclear.o
                                        0xc50 (size before relaxing)
 .debug_str     0x0000000000002d47       0x18 binaries/lfibget.o
                                        0xc62 (size before relaxing)
 .debug_str     0x0000000000002d5f       0x22 binaries/lfibput.o
                                        0xc79 (size before relaxing)
 .debug_str     0x0000000000002d81       0x22 binaries/lflclose.o
                                        0xc62 (size before relaxing)
 .debug_str     0x0000000000002da3       0x31 binaries/lflcontrol.o
                                        0xc87 (size before relaxing)
 .debug_str     0x0000000000002dd4       0x36 binaries/lflgetc.o
                                        0xc6e (size before relaxing)
 .debug_str     0x0000000000002e0a       0x20 binaries/lflinit.o
                                        0xc5d (size before relaxing)
 .debug_str     0x0000000000002e2a       0x20 binaries/lflputc.o
                                        0xc66 (size before relaxing)
 .debug_str     0x0000000000002e4a       0x30 binaries/lflread.o
                                        0xc69 (size before relaxing)
 .debug_str     0x0000000000002e7a       0x20 binaries/lflseek.o
                                        0xc5f (size before relaxing)
 .debug_str     0x0000000000002e9a       0x22 binaries/lflwrite.o
                                        0xc5b (size before relaxing)
 .debug_str     0x0000000000002ebc       0x41 binaries/lfsckfmt.o
                                        0xcc8 (size before relaxing)
 .debug_str     0x0000000000002efd       0x3d binaries/lfscreate.o
                                        0xce7 (size before relaxing)
 .debug_str     0x0000000000002f3a       0x29 binaries/lfsetup.o
                                        0xcd8 (size before relaxing)
 .debug_str     0x0000000000002f63       0x20 binaries/lfsinit.o
                                        0xc57 (size before relaxing)
 .debug_str     0x0000000000002f83       0x27 binaries/lfsopen.o
                                        0xc9d (size before relaxing)
 .debug_str     0x0000000000002faa       0x23 binaries/lftruncate.o
                                        0xc9c (size before relaxing)
 .debug_str     0x0000000000002fcd       0x28 binaries/rflclose.o
                                        0xc5a (size before relaxing)
 .debug_str     0x0000000000002ff5       0x28 binaries/rflgetc.o
                                        0xc55 (size before relaxing)
 .debug_str     0x000000000000301d       0x27 binaries/rflinit.o
                                        0xc4d (size before relaxing)
 .debug_str     0x0000000000003044       0x29 binaries/rflputc.o
                                        0xc4f (size before relaxing)
 .debug_str     0x000000000000306d       0x73 binaries/rflread.o
                                        0xcde (size before relaxing)
 .debug_str     0x00000000000030e0       0x20 binaries/rflseek.o
                                        0xc58 (size before relaxing)
 .debug_str     0x0000000000003100       0x31 binaries/rflwrite.o
                                        0xce0 (size before relaxing)
 .debug_str     0x0000000000003131       0x18 binaries/rfscomm.o
                                        0xcad (size before relaxing)
 .debug_str     0x0000000000003149       0x4f binaries/rfscontrol.o
                                        0xce3 (size before relaxing)
 .debug_str     0x0000000000003198       0x26 binaries/rfsgetmode.o
                                        0xc50 (size before relaxing)
 .debug_str     0x00000000000031be       0x20 binaries/rfsinit.o
                                        0xc5d (size before relaxing)
 .debug_str     0x00000000000031de       0x19 binaries/rfsndmsg.o
                                        0xc8e (size before relaxing)
 .debug_str     0x00000000000031f7       0x40 binaries/rfsopen.o
                                        0xcda (size before relaxing)
 .debug_str     0x0000000000003237       0xe1 binaries/arp.o
                                        0xd70 (size before relaxing)
 .debug_str     0x0000000000003318      0x154 binaries/dhcp.o
                                        0xddc (size before relaxing)
 .debug_str     0x000000000000346c       0x17 binaries/dot2ip.o
                                        0xc4b (size before relaxing)
 .debug_str     0x0000000000003483       0x22 binaries/hexdump.o
                                        0xc4e (size before relaxing)
 .debug_str     0x00000000000034a5       0xd3 binaries/icmp.o
                                        0xd8b (size before relaxing)
 .debug_str     0x0000000000003578       0x78 binaries/ip.o
                                        0xd71 (size before relaxing)
 .debug_str     0x00000000000035f0       0x34 binaries/net.o
                                        0xd5e (size before relaxing)
 .debug_str     0x0000000000003624       0x1b binaries/netstart.o
                                        0xc63 (size before relaxing)
 .debug_str     0x000000000000363f       0x16 binaries/pdump.o
                                        0xce1 (size before relaxing)
 .debug_str     0x0000000000003655      0x120 binaries/tftp.o
                                        0xdb3 (size before relaxing)
 .debug_str     0x0000000000003775       0x29 binaries/udp.o
                                        0xd54 (size before relaxing)
 .debug_str     0x000000000000379e       0x41 binaries/addargs.o
                                        0xca1 (size before relaxing)
 .debug_str     0x00000000000037df       0x2c binaries/lexan.o
                                        0xc61 (size before relaxing)
 .debug_str     0x000000000000380b       0x53 binaries/shell.o
                                        0xcdd (size before relaxing)
 .debug_str     0x000000000000385e       0x2c binaries/xsh_argecho.o
                                        0xc5d (size before relaxing)
 .debug_str     0x000000000000388a       0x23 binaries/xsh_arp.o
                                        0xc6b (size before relaxing)
 .debug_str     0x00000000000038ad       0x2f binaries/xsh_cat.o
                                        0xc8e (size before relaxing)
 .debug_str     0x00000000000038dc       0x1f binaries/xsh_clear.o
                                        0xc61 (size before relaxing)
 .debug_str     0x00000000000038fb       0x25 binaries/xsh_date.o
                                        0xc86 (size before relaxing)
 .debug_str     0x0000000000003920       0x23 binaries/xsh_devdump.o
                                        0xc6c (size before relaxing)
 .debug_str     0x0000000000003943       0x1d binaries/xsh_echo.o
                                        0xc57 (size before relaxing)
 .debug_str     0x0000000000003960       0x1d binaries/xsh_exit.o
                                        0xc50 (size before relaxing)
 .debug_str     0x000000000000397d       0x32 binaries/xsh_help.o
                                        0xc8b (size before relaxing)
 .debug_str     0x00000000000039af       0x21 binaries/xsh_ipaddr.o
                                        0xc8c (size before relaxing)
 .debug_str     0x00000000000039d0       0x23 binaries/xsh_kill.o
                                        0xc79 (size before relaxing)
 .debug_str     0x00000000000039f3       0x32 binaries/xsh_memdump.o
                                        0xca1 (size before relaxing)
 .debug_str     0x0000000000003a25       0x4f binaries/xsh_memstat.o
                                        0xca9 (size before relaxing)
 .debug_str     0x0000000000003a74       0x25 binaries/xsh_ping.o
                                        0xcb8 (size before relaxing)
 .debug_str     0x0000000000003a99       0x19 binaries/xsh_ps.o
                                        0xc70 (size before relaxing)
 .debug_str     0x0000000000003ab2       0x1f binaries/xsh_sleep.o
                                        0xc7b (size before relaxing)
 .debug_str     0x0000000000003ad1       0x3a binaries/xsh_udpdump.o
                                        0xc8f (size before relaxing)
 .debug_str     0x0000000000003b0b       0x3b binaries/xsh_udpecho.o
                                        0xce8 (size before relaxing)
 .debug_str     0x0000000000003b46       0x38 binaries/xsh_udpeserver.o
                                        0xce0 (size before relaxing)
 .debug_str     0x0000000000003b7e       0x43 binaries/xsh_uptime.o
                                        0xc97 (size before relaxing)
 .debug_str     0x0000000000003bc1       0x14 binaries/clkdisp.o
                                         0x48 (size before relaxing)
 .debug_str     0x0000000000003bd5       0x12 binaries/ctxsw.o
                                         0x46 (size before relaxing)
 .debug_str     0x0000000000003be7       0x11 binaries/intr.o
                                         0x45 (size before relaxing)
 .debug_str     0x0000000000003bf8       0x1c binaries/ttydispatch.o
                                         0x50 (size before relaxing)
 .debug_str     0x0000000000003c14       0x1c binaries/ethdispatch.o
                                         0x50 (size before relaxing)

.debug_loc      0x0000000000000000     0xe6bb
 .debug_loc     0x0000000000000000      0x358 binaries/ascdate.o
 .debug_loc     0x0000000000000358       0x1e binaries/cbreg.o
 .debug_loc     0x0000000000000376       0x31 binaries/chprio.o
 .debug_loc     0x00000000000003a7       0x52 binaries/close.o
 .debug_loc     0x00000000000003f9       0x52 binaries/control.o
 .debug_loc     0x000000000000044b      0x266 binaries/create.o
 .debug_loc     0x00000000000006b1      0x167 binaries/early_imr.o
 .debug_loc     0x0000000000000818      0x175 binaries/evec.o
 .debug_loc     0x000000000000098d       0x93 binaries/freebuf.o
 .debug_loc     0x0000000000000a20      0x147 binaries/freemem.o
 .debug_loc     0x0000000000000b67       0x47 binaries/getbuf.o
 .debug_loc     0x0000000000000bae       0x52 binaries/getc.o
 .debug_loc     0x0000000000000c00       0x49 binaries/getdev.o
 .debug_loc     0x0000000000000c49       0xb2 binaries/getitem.o
 .debug_loc     0x0000000000000cfb      0x14f binaries/getmem.o
 .debug_loc     0x0000000000000e4a       0x42 binaries/getprio.o
 .debug_loc     0x0000000000000e8c      0x177 binaries/getstk.o
 .debug_loc     0x0000000000001003       0x1e binaries/gettime.o
 .debug_loc     0x0000000000001021       0x87 binaries/getutime.o
 .debug_loc     0x00000000000010a8      0x76f binaries/i386-stub.o
 .debug_loc     0x0000000000001817       0x52 binaries/init.o
 .debug_loc     0x0000000000001869       0xc2 binaries/initialize.o
 .debug_loc     0x000000000000192b       0xcf binaries/insert.o
 .debug_loc     0x00000000000019fa       0xdf binaries/insertd.o
 .debug_loc     0x0000000000001ad9       0x62 binaries/kill.o
 .debug_loc     0x0000000000001b3b       0x59 binaries/kprintf.o
 .debug_loc     0x0000000000001b94      0x108 binaries/main.o
 .debug_loc     0x0000000000001c9c       0x1f binaries/mark.o
 .debug_loc     0x0000000000001cbb      0x168 binaries/meminit.o
 .debug_loc     0x0000000000001e23      0x177 binaries/mkbufpool.o
 .debug_loc     0x0000000000001f9a       0x22 binaries/newqueue.o
 .debug_loc     0x0000000000001fbc       0x52 binaries/open.o
 .debug_loc     0x000000000000200e      0x2bd binaries/pci.o
 .debug_loc     0x00000000000022cb       0x13 binaries/platinit.o
 .debug_loc     0x00000000000022de       0x1e binaries/ptclear.o
 .debug_loc     0x00000000000022fc       0x5d binaries/ptcount.o
 .debug_loc     0x0000000000002359       0x98 binaries/ptcreate.o
 .debug_loc     0x00000000000023f1       0x3c binaries/ptdelete.o
 .debug_loc     0x000000000000242d       0xab binaries/ptinit.o
 .debug_loc     0x00000000000024d8       0x83 binaries/ptrecv.o
 .debug_loc     0x000000000000255b       0x3c binaries/ptreset.o
 .debug_loc     0x0000000000002597       0x83 binaries/ptsend.o
 .debug_loc     0x000000000000261a       0x52 binaries/putc.o
 .debug_loc     0x000000000000266c       0x29 binaries/quark_irq.o
 .debug_loc     0x0000000000002695      0x1d8 binaries/quark_pdat.o
 .debug_loc     0x000000000000286d       0x8c binaries/queue.o
 .debug_loc     0x00000000000028f9       0x52 binaries/read.o
 .debug_loc     0x000000000000294b       0x79 binaries/receive.o
 .debug_loc     0x00000000000029c4       0xc3 binaries/receiveq.o
 .debug_loc     0x0000000000002a87       0x47 binaries/recvclr.o
 .debug_loc     0x0000000000002ace       0x3c binaries/recvtime.o
 .debug_loc     0x0000000000002b0a       0x1f binaries/resched.o
 .debug_loc     0x0000000000002b29       0x3c binaries/resume.o
 .debug_loc     0x0000000000002b65       0x52 binaries/seek.o
 .debug_loc     0x0000000000002bb7       0x31 binaries/semcount.o
 .debug_loc     0x0000000000002be8       0x90 binaries/semcreate.o
 .debug_loc     0x0000000000002c78       0x34 binaries/semdelete.o
 .debug_loc     0x0000000000002cac       0x5a binaries/semreset.o
 .debug_loc     0x0000000000002d06       0x1f binaries/sendblk.o
 .debug_loc     0x0000000000002d25       0x29 binaries/send.o
 .debug_loc     0x0000000000002d4e       0x1f binaries/sendq.o
 .debug_loc     0x0000000000002d6d       0x34 binaries/signal.o
 .debug_loc     0x0000000000002da1       0x79 binaries/signaln.o
 .debug_loc     0x0000000000002e1a       0x34 binaries/sleep.o
 .debug_loc     0x0000000000002e4e       0x3c binaries/suspend.o
 .debug_loc     0x0000000000002e8a       0x3c binaries/unsleep.o
 .debug_loc     0x0000000000002ec6       0x34 binaries/wait.o
 .debug_loc     0x0000000000002efa       0x52 binaries/write.o
 .debug_loc     0x0000000000002f4c       0x1e binaries/yield.o
 .debug_loc     0x0000000000002f6a       0x23 binaries/abs.o
 .debug_loc     0x0000000000002f8d       0x80 binaries/atoi.o
 .debug_loc     0x000000000000300d       0x80 binaries/atol.o
 .debug_loc     0x000000000000308d       0x1f binaries/bzero.o
 .debug_loc     0x00000000000030ac      0xdc6 binaries/doprnt.o
 .debug_loc     0x0000000000003e72     0x10e4 binaries/doscan.o
 .debug_loc     0x0000000000004f56      0xd5c binaries/fdoprnt.o
 .debug_loc     0x0000000000005cb2       0x1e binaries/fgetc.o
 .debug_loc     0x0000000000005cd0       0x96 binaries/fgets.o
 .debug_loc     0x0000000000005d66       0x20 binaries/fprintf.o
 .debug_loc     0x0000000000005d86       0x92 binaries/fputs.o
 .debug_loc     0x0000000000005e18       0x3f binaries/fscanf.o
 .debug_loc     0x0000000000005e57       0x23 binaries/labs.o
 .debug_loc     0x0000000000005e7a       0x83 binaries/memchr.o
 .debug_loc     0x0000000000005efd       0xe9 binaries/memcmp.o
 .debug_loc     0x0000000000005fe6      0x104 binaries/memcpy.o
 .debug_loc     0x00000000000060ea       0x62 binaries/memset.o
 .debug_loc     0x000000000000614c       0x20 binaries/printf.o
 .debug_loc     0x000000000000616c      0x393 binaries/qsort.o
 .debug_loc     0x00000000000064ff       0x3f binaries/sprintf.o
 .debug_loc     0x000000000000653e       0x20 binaries/sscanf.o
 .debug_loc     0x000000000000655e       0x49 binaries/strchr.o
 .debug_loc     0x00000000000065a7       0x3e binaries/strcmp.o
 .debug_loc     0x00000000000065e5       0x3e binaries/strcpy.o
 .debug_loc     0x0000000000006623       0x6f binaries/strlen.o
 .debug_loc     0x0000000000006692       0xcb binaries/strncat.o
 .debug_loc     0x000000000000675d       0x8d binaries/strncmp.o
 .debug_loc     0x00000000000067ea      0x13f binaries/strncpy.o
 .debug_loc     0x0000000000006929       0x8e binaries/strnlen.o
 .debug_loc     0x00000000000069b7       0x69 binaries/strrchr.o
 .debug_loc     0x0000000000006a20       0x7e binaries/strstr.o
 .debug_loc     0x0000000000006a9e       0x1f binaries/ttycontrol.o
 .debug_loc     0x0000000000006abd       0x1e binaries/ttygetc.o
 .debug_loc     0x0000000000006adb      0x3c9 binaries/ttyhandle_in.o
 .debug_loc     0x0000000000006ea4      0x113 binaries/ttyhandle_out.o
 .debug_loc     0x0000000000006fb7       0x4c binaries/ttyhandler.o
 .debug_loc     0x0000000000007003       0x32 binaries/ttyinit.o
 .debug_loc     0x0000000000007035      0x1ac binaries/ttyread.o
 .debug_loc     0x00000000000071e1       0x78 binaries/ttywrite.o
 .debug_loc     0x0000000000007259      0x21b binaries/mount.o
 .debug_loc     0x0000000000007474      0x122 binaries/naminit.o
 .debug_loc     0x0000000000007596      0x420 binaries/nammap.o
 .debug_loc     0x00000000000079b6       0x1e binaries/namopen.o
 .debug_loc     0x00000000000079d4      0x10a binaries/colon2mac.o
 .debug_loc     0x0000000000007ade       0x6b binaries/ethcontrol.o
 .debug_loc     0x0000000000007b49       0xfd binaries/ethhandler.o
 .debug_loc     0x0000000000007c46      0x4ec binaries/ethinit.o
 .debug_loc     0x0000000000008132       0xe9 binaries/ethmcast.o
 .debug_loc     0x000000000000821b      0x122 binaries/ethread.o
 .debug_loc     0x000000000000833d       0x3e binaries/ethwrite.o
 .debug_loc     0x000000000000837b       0x44 binaries/rdsbufalloc.o
 .debug_loc     0x00000000000083bf       0x3c binaries/rdsclose.o
 .debug_loc     0x00000000000083fb      0x1ba binaries/rdscomm.o
 .debug_loc     0x00000000000085b5      0x123 binaries/rdscontrol.o
 .debug_loc     0x00000000000086d8      0x106 binaries/rdsinit.o
 .debug_loc     0x00000000000087de      0x1a8 binaries/rdsopen.o
 .debug_loc     0x0000000000008986      0x240 binaries/rdsprocess.o
 .debug_loc     0x0000000000008bc6      0x16e binaries/rdsread.o
 .debug_loc     0x0000000000008d34       0xb4 binaries/rdswrite.o
 .debug_loc     0x0000000000008de8       0x33 binaries/ramread.o
 .debug_loc     0x0000000000008e1b       0x33 binaries/ramwrite.o
 .debug_loc     0x0000000000008e4e       0x47 binaries/lfdballoc.o
 .debug_loc     0x0000000000008e95       0x36 binaries/lfflush.o
 .debug_loc     0x0000000000008ecb       0x6a binaries/lfgetmode.o
 .debug_loc     0x0000000000008f35       0x29 binaries/lfiballoc.o
 .debug_loc     0x0000000000008f5e       0x14 binaries/lfibclear.o
 .debug_loc     0x0000000000008f72       0x9a binaries/lfibget.o
 .debug_loc     0x000000000000900c       0xbe binaries/lfibput.o
 .debug_loc     0x00000000000090ca       0x52 binaries/lflcontrol.o
 .debug_loc     0x000000000000911c       0x13 binaries/lflgetc.o
 .debug_loc     0x000000000000912f       0x81 binaries/lflinit.o
 .debug_loc     0x00000000000091b0       0x1e binaries/lflputc.o
 .debug_loc     0x00000000000091ce       0xe6 binaries/lflread.o
 .debug_loc     0x00000000000092b4       0x76 binaries/lflwrite.o
 .debug_loc     0x000000000000932a       0xd6 binaries/lfsckfmt.o
 .debug_loc     0x0000000000009400      0x331 binaries/lfscreate.o
 .debug_loc     0x0000000000009731      0x16e binaries/lfsetup.o
 .debug_loc     0x000000000000989f      0x2ad binaries/lfsopen.o
 .debug_loc     0x0000000000009b4c       0xcb binaries/lftruncate.o
 .debug_loc     0x0000000000009c17       0x1e binaries/rflgetc.o
 .debug_loc     0x0000000000009c35       0x5f binaries/rflinit.o
 .debug_loc     0x0000000000009c94       0x14 binaries/rflputc.o
 .debug_loc     0x0000000000009ca8      0x16e binaries/rflread.o
 .debug_loc     0x0000000000009e16      0x13a binaries/rflwrite.o
 .debug_loc     0x0000000000009f50      0x146 binaries/rfscomm.o
 .debug_loc     0x000000000000a096       0xec binaries/rfscontrol.o
 .debug_loc     0x000000000000a182       0x6a binaries/rfsgetmode.o
 .debug_loc     0x000000000000a1ec       0x9b binaries/rfsndmsg.o
 .debug_loc     0x000000000000a287      0x1ff binaries/rfsopen.o
 .debug_loc     0x000000000000a486      0x341 binaries/arp.o
 .debug_loc     0x000000000000a7c7      0x685 binaries/dhcp.o
 .debug_loc     0x000000000000ae4c      0x229 binaries/dot2ip.o
 .debug_loc     0x000000000000b075      0x46f binaries/hexdump.o
 .debug_loc     0x000000000000b4e4      0x686 binaries/icmp.o
 .debug_loc     0x000000000000bb6a      0x2f7 binaries/ip.o
 .debug_loc     0x000000000000be61       0x47 binaries/net.o
 .debug_loc     0x000000000000bea8       0x40 binaries/netstart.o
 .debug_loc     0x000000000000bee8       0x27 binaries/pdump.o
 .debug_loc     0x000000000000bf0f      0x489 binaries/tftp.o
 .debug_loc     0x000000000000c398      0xab1 binaries/udp.o
 .debug_loc     0x000000000000ce49      0x11e binaries/addargs.o
 .debug_loc     0x000000000000cf67      0x370 binaries/lexan.o
 .debug_loc     0x000000000000d2d7      0x488 binaries/shell.o
 .debug_loc     0x000000000000d75f       0x1f binaries/xsh_argecho.o
 .debug_loc     0x000000000000d77e       0x33 binaries/xsh_arp.o
 .debug_loc     0x000000000000d7b1       0xe9 binaries/xsh_cat.o
 .debug_loc     0x000000000000d89a       0x1e binaries/xsh_date.o
 .debug_loc     0x000000000000d8b8       0x1f binaries/xsh_devdump.o
 .debug_loc     0x000000000000d8d7       0x14 binaries/xsh_echo.o
 .debug_loc     0x000000000000d8eb      0x229 binaries/xsh_help.o
 .debug_loc     0x000000000000db14       0xac binaries/xsh_ipaddr.o
 .debug_loc     0x000000000000dbc0       0xa5 binaries/xsh_kill.o
 .debug_loc     0x000000000000dc65      0x478 binaries/xsh_memdump.o
 .debug_loc     0x000000000000e0dd       0xef binaries/xsh_memstat.o
 .debug_loc     0x000000000000e1cc       0xfa binaries/xsh_ping.o
 .debug_loc     0x000000000000e2c6       0x1f binaries/xsh_ps.o
 .debug_loc     0x000000000000e2e5       0x71 binaries/xsh_sleep.o
 .debug_loc     0x000000000000e356      0x108 binaries/xsh_udpdump.o
 .debug_loc     0x000000000000e45e      0x16d binaries/xsh_udpecho.o
 .debug_loc     0x000000000000e5cb       0xa8 binaries/xsh_udpeserver.o
 .debug_loc     0x000000000000e673       0x48 binaries/xsh_uptime.o

.comment        0x0000000000000000       0x2a
 .comment       0x0000000000000000       0x2a binaries/ascdate.o
                                         0x2b (size before relaxing)
 .comment       0x000000000000002a       0x2b binaries/bufinit.o
 .comment       0x000000000000002a       0x2b binaries/cbreg.o
 .comment       0x000000000000002a       0x2b binaries/chprio.o
 .comment       0x000000000000002a       0x2b binaries/clkhandler.o
 .comment       0x000000000000002a       0x2b binaries/clkinit.o
 .comment       0x000000000000002a       0x2b binaries/close.o
 .comment       0x000000000000002a       0x2b binaries/conf.o
 .comment       0x000000000000002a       0x2b binaries/control.o
 .comment       0x000000000000002a       0x2b binaries/create.o
 .comment       0x000000000000002a       0x2b binaries/early_imr.o
 .comment       0x000000000000002a       0x2b binaries/evec.o
 .comment       0x000000000000002a       0x2b binaries/freebuf.o
 .comment       0x000000000000002a       0x2b binaries/freemem.o
 .comment       0x000000000000002a       0x2b binaries/getbuf.o
 .comment       0x000000000000002a       0x2b binaries/getc.o
 .comment       0x000000000000002a       0x2b binaries/getdev.o
 .comment       0x000000000000002a       0x2b binaries/getitem.o
 .comment       0x000000000000002a       0x2b binaries/getmem.o
 .comment       0x000000000000002a       0x2b binaries/getpid.o
 .comment       0x000000000000002a       0x2b binaries/getprio.o
 .comment       0x000000000000002a       0x2b binaries/getstk.o
 .comment       0x000000000000002a       0x2b binaries/gettime.o
 .comment       0x000000000000002a       0x2b binaries/getutime.o
 .comment       0x000000000000002a       0x2b binaries/i386-stub.o
 .comment       0x000000000000002a       0x2b binaries/init.o
 .comment       0x000000000000002a       0x2b binaries/initialize.o
 .comment       0x000000000000002a       0x2b binaries/insert.o
 .comment       0x000000000000002a       0x2b binaries/insertd.o
 .comment       0x000000000000002a       0x2b binaries/ioerr.o
 .comment       0x000000000000002a       0x2b binaries/ionull.o
 .comment       0x000000000000002a       0x2b binaries/kill.o
 .comment       0x000000000000002a       0x2b binaries/kprintf.o
 .comment       0x000000000000002a       0x2b binaries/main.o
 .comment       0x000000000000002a       0x2b binaries/mark.o
 .comment       0x000000000000002a       0x2b binaries/meminit.o
 .comment       0x000000000000002a       0x2b binaries/mkbufpool.o
 .comment       0x000000000000002a       0x2b binaries/newqueue.o
 .comment       0x000000000000002a       0x2b binaries/open.o
 .comment       0x000000000000002a       0x2b binaries/panic.o
 .comment       0x000000000000002a       0x2b binaries/pci.o
 .comment       0x000000000000002a       0x2b binaries/platinit.o
 .comment       0x000000000000002a       0x2b binaries/ptclear.o
 .comment       0x000000000000002a       0x2b binaries/ptcount.o
 .comment       0x000000000000002a       0x2b binaries/ptcreate.o
 .comment       0x000000000000002a       0x2b binaries/ptdelete.o
 .comment       0x000000000000002a       0x2b binaries/ptinit.o
 .comment       0x000000000000002a       0x2b binaries/ptrecv.o
 .comment       0x000000000000002a       0x2b binaries/ptreset.o
 .comment       0x000000000000002a       0x2b binaries/ptsend.o
 .comment       0x000000000000002a       0x2b binaries/putc.o
 .comment       0x000000000000002a       0x2b binaries/quark_irq.o
 .comment       0x000000000000002a       0x2b binaries/quark_pdat.o
 .comment       0x000000000000002a       0x2b binaries/queue.o
 .comment       0x000000000000002a       0x2b binaries/read.o
 .comment       0x000000000000002a       0x2b binaries/ready.o
 .comment       0x000000000000002a       0x2b binaries/receive.o
 .comment       0x000000000000002a       0x2b binaries/receiveq.o
 .comment       0x000000000000002a       0x2b binaries/recvclr.o
 .comment       0x000000000000002a       0x2b binaries/recvtime.o
 .comment       0x000000000000002a       0x2b binaries/resched.o
 .comment       0x000000000000002a       0x2b binaries/resume.o
 .comment       0x000000000000002a       0x2b binaries/seek.o
 .comment       0x000000000000002a       0x2b binaries/semcount.o
 .comment       0x000000000000002a       0x2b binaries/semcreate.o
 .comment       0x000000000000002a       0x2b binaries/semdelete.o
 .comment       0x000000000000002a       0x2b binaries/semreset.o
 .comment       0x000000000000002a       0x2b binaries/sendblk.o
 .comment       0x000000000000002a       0x2b binaries/send.o
 .comment       0x000000000000002a       0x2b binaries/sendq.o
 .comment       0x000000000000002a       0x2b binaries/signal.o
 .comment       0x000000000000002a       0x2b binaries/signaln.o
 .comment       0x000000000000002a       0x2b binaries/sleep.o
 .comment       0x000000000000002a       0x2b binaries/suspend.o
 .comment       0x000000000000002a       0x2b binaries/unsleep.o
 .comment       0x000000000000002a       0x2b binaries/userret.o
 .comment       0x000000000000002a       0x2b binaries/wait.o
 .comment       0x000000000000002a       0x2b binaries/wakeup.o
 .comment       0x000000000000002a       0x2b binaries/write.o
 .comment       0x000000000000002a       0x2b binaries/xdone.o
 .comment       0x000000000000002a       0x2b binaries/yield.o
 .comment       0x000000000000002a       0x2b binaries/abs.o
 .comment       0x000000000000002a       0x2b binaries/atoi.o
 .comment       0x000000000000002a       0x2b binaries/atol.o
 .comment       0x000000000000002a       0x2b binaries/bzero.o
 .comment       0x000000000000002a       0x2b binaries/ctype_.o
 .comment       0x000000000000002a       0x2b binaries/doprnt.o
 .comment       0x000000000000002a       0x2b binaries/doscan.o
 .comment       0x000000000000002a       0x2b binaries/fdoprnt.o
 .comment       0x000000000000002a       0x2b binaries/fgetc.o
 .comment       0x000000000000002a       0x2b binaries/fgets.o
 .comment       0x000000000000002a       0x2b binaries/fprintf.o
 .comment       0x000000000000002a       0x2b binaries/fputc.o
 .comment       0x000000000000002a       0x2b binaries/fputs.o
 .comment       0x000000000000002a       0x2b binaries/fscanf.o
 .comment       0x000000000000002a       0x2b binaries/getchar.o
 .comment       0x000000000000002a       0x2b binaries/labs.o
 .comment       0x000000000000002a       0x2b binaries/memchr.o
 .comment       0x000000000000002a       0x2b binaries/memcmp.o
 .comment       0x000000000000002a       0x2b binaries/memcpy.o
 .comment       0x000000000000002a       0x2b binaries/memset.o
 .comment       0x000000000000002a       0x2b binaries/printf.o
 .comment       0x000000000000002a       0x2b binaries/putchar.o
 .comment       0x000000000000002a       0x2b binaries/qsort.o
 .comment       0x000000000000002a       0x2b binaries/rand.o
 .comment       0x000000000000002a       0x2b binaries/sprintf.o
 .comment       0x000000000000002a       0x2b binaries/sscanf.o
 .comment       0x000000000000002a       0x2b binaries/strchr.o
 .comment       0x000000000000002a       0x2b binaries/strcmp.o
 .comment       0x000000000000002a       0x2b binaries/strcpy.o
 .comment       0x000000000000002a       0x2b binaries/strlen.o
 .comment       0x000000000000002a       0x2b binaries/strncat.o
 .comment       0x000000000000002a       0x2b binaries/strncmp.o
 .comment       0x000000000000002a       0x2b binaries/strncpy.o
 .comment       0x000000000000002a       0x2b binaries/strnlen.o
 .comment       0x000000000000002a       0x2b binaries/strrchr.o
 .comment       0x000000000000002a       0x2b binaries/strstr.o
 .comment       0x000000000000002a       0x2b binaries/ttycontrol.o
 .comment       0x000000000000002a       0x2b binaries/ttygetc.o
 .comment       0x000000000000002a       0x2b binaries/ttyhandle_in.o
 .comment       0x000000000000002a       0x2b binaries/ttyhandle_out.o
 .comment       0x000000000000002a       0x2b binaries/ttyhandler.o
 .comment       0x000000000000002a       0x2b binaries/ttyinit.o
 .comment       0x000000000000002a       0x2b binaries/ttykickout.o
 .comment       0x000000000000002a       0x2b binaries/ttyputc.o
 .comment       0x000000000000002a       0x2b binaries/ttyread.o
 .comment       0x000000000000002a       0x2b binaries/ttywrite.o
 .comment       0x000000000000002a       0x2b binaries/mount.o
 .comment       0x000000000000002a       0x2b binaries/naminit.o
 .comment       0x000000000000002a       0x2b binaries/nammap.o
 .comment       0x000000000000002a       0x2b binaries/namopen.o
 .comment       0x000000000000002a       0x2b binaries/colon2mac.o
 .comment       0x000000000000002a       0x2b binaries/ethcontrol.o
 .comment       0x000000000000002a       0x2b binaries/ethhandler.o
 .comment       0x000000000000002a       0x2b binaries/ethinit.o
 .comment       0x000000000000002a       0x2b binaries/ethmcast.o
 .comment       0x000000000000002a       0x2b binaries/ethread.o
 .comment       0x000000000000002a       0x2b binaries/ethwrite.o
 .comment       0x000000000000002a       0x2b binaries/rdsbufalloc.o
 .comment       0x000000000000002a       0x2b binaries/rdsclose.o
 .comment       0x000000000000002a       0x2b binaries/rdscomm.o
 .comment       0x000000000000002a       0x2b binaries/rdscontrol.o
 .comment       0x000000000000002a       0x2b binaries/rdsinit.o
 .comment       0x000000000000002a       0x2b binaries/rdsopen.o
 .comment       0x000000000000002a       0x2b binaries/rdsprocess.o
 .comment       0x000000000000002a       0x2b binaries/rdsread.o
 .comment       0x000000000000002a       0x2b binaries/rdswrite.o
 .comment       0x000000000000002a       0x2b binaries/ramclose.o
 .comment       0x000000000000002a       0x2b binaries/raminit.o
 .comment       0x000000000000002a       0x2b binaries/ramopen.o
 .comment       0x000000000000002a       0x2b binaries/ramread.o
 .comment       0x000000000000002a       0x2b binaries/ramwrite.o
 .comment       0x000000000000002a       0x2b binaries/lfdballoc.o
 .comment       0x000000000000002a       0x2b binaries/lfdbfree.o
 .comment       0x000000000000002a       0x2b binaries/lfflush.o
 .comment       0x000000000000002a       0x2b binaries/lfgetmode.o
 .comment       0x000000000000002a       0x2b binaries/lfiballoc.o
 .comment       0x000000000000002a       0x2b binaries/lfibclear.o
 .comment       0x000000000000002a       0x2b binaries/lfibget.o
 .comment       0x000000000000002a       0x2b binaries/lfibput.o
 .comment       0x000000000000002a       0x2b binaries/lflclose.o
 .comment       0x000000000000002a       0x2b binaries/lflcontrol.o
 .comment       0x000000000000002a       0x2b binaries/lflgetc.o
 .comment       0x000000000000002a       0x2b binaries/lflinit.o
 .comment       0x000000000000002a       0x2b binaries/lflputc.o
 .comment       0x000000000000002a       0x2b binaries/lflread.o
 .comment       0x000000000000002a       0x2b binaries/lflseek.o
 .comment       0x000000000000002a       0x2b binaries/lflwrite.o
 .comment       0x000000000000002a       0x2b binaries/lfsckfmt.o
 .comment       0x000000000000002a       0x2b binaries/lfscreate.o
 .comment       0x000000000000002a       0x2b binaries/lfsetup.o
 .comment       0x000000000000002a       0x2b binaries/lfsinit.o
 .comment       0x000000000000002a       0x2b binaries/lfsopen.o
 .comment       0x000000000000002a       0x2b binaries/lftruncate.o
 .comment       0x000000000000002a       0x2b binaries/rflclose.o
 .comment       0x000000000000002a       0x2b binaries/rflgetc.o
 .comment       0x000000000000002a       0x2b binaries/rflinit.o
 .comment       0x000000000000002a       0x2b binaries/rflputc.o
 .comment       0x000000000000002a       0x2b binaries/rflread.o
 .comment       0x000000000000002a       0x2b binaries/rflseek.o
 .comment       0x000000000000002a       0x2b binaries/rflwrite.o
 .comment       0x000000000000002a       0x2b binaries/rfscomm.o
 .comment       0x000000000000002a       0x2b binaries/rfscontrol.o
 .comment       0x000000000000002a       0x2b binaries/rfsgetmode.o
 .comment       0x000000000000002a       0x2b binaries/rfsinit.o
 .comment       0x000000000000002a       0x2b binaries/rfsndmsg.o
 .comment       0x000000000000002a       0x2b binaries/rfsopen.o
 .comment       0x000000000000002a       0x2b binaries/arp.o
 .comment       0x000000000000002a       0x2b binaries/dhcp.o
 .comment       0x000000000000002a       0x2b binaries/dot2ip.o
 .comment       0x000000000000002a       0x2b binaries/hexdump.o
 .comment       0x000000000000002a       0x2b binaries/icmp.o
 .comment       0x000000000000002a       0x2b binaries/ip.o
 .comment       0x000000000000002a       0x2b binaries/net.o
 .comment       0x000000000000002a       0x2b binaries/netstart.o
 .comment       0x000000000000002a       0x2b binaries/pdump.o
 .comment       0x000000000000002a       0x2b binaries/tftp.o
 .comment       0x000000000000002a       0x2b binaries/udp.o
 .comment       0x000000000000002a       0x2b binaries/addargs.o
 .comment       0x000000000000002a       0x2b binaries/lexan.o
 .comment       0x000000000000002a       0x2b binaries/shell.o
 .comment       0x000000000000002a       0x2b binaries/xsh_argecho.o
 .comment       0x000000000000002a       0x2b binaries/xsh_arp.o
 .comment       0x000000000000002a       0x2b binaries/xsh_cat.o
 .comment       0x000000000000002a       0x2b binaries/xsh_clear.o
 .comment       0x000000000000002a       0x2b binaries/xsh_date.o
 .comment       0x000000000000002a       0x2b binaries/xsh_devdump.o
 .comment       0x000000000000002a       0x2b binaries/xsh_echo.o
 .comment       0x000000000000002a       0x2b binaries/xsh_exit.o
 .comment       0x000000000000002a       0x2b binaries/xsh_help.o
 .comment       0x000000000000002a       0x2b binaries/xsh_ipaddr.o
 .comment       0x000000000000002a       0x2b binaries/xsh_kill.o
 .comment       0x000000000000002a       0x2b binaries/xsh_memdump.o
 .comment       0x000000000000002a       0x2b binaries/xsh_memstat.o
 .comment       0x000000000000002a       0x2b binaries/xsh_ping.o
 .comment       0x000000000000002a       0x2b binaries/xsh_ps.o
 .comment       0x000000000000002a       0x2b binaries/xsh_sleep.o
 .comment       0x000000000000002a       0x2b binaries/xsh_udpdump.o
 .comment       0x000000000000002a       0x2b binaries/xsh_udpecho.o
 .comment       0x000000000000002a       0x2b binaries/xsh_udpeserver.o
 .comment       0x000000000000002a       0x2b binaries/xsh_uptime.o

.note.GNU-stack
                0x0000000000000000        0x0
 .note.GNU-stack
                0x0000000000000000        0x0 binaries/ascdate.o
 .note.GNU-stack
                0x0000000000000000        0x0 binaries/bufinit.o
 .note.GNU-stack
                0x0000000000000000        0x0 binaries/cbreg.o
 .note.GNU-stack
                0x0000000000000000        0x0 binaries/chprio.o
 .note.GNU-stack
                0x0000000000000000        0x0 binaries/clkhandler.o
 .note.GNU-stack
                0x0000000000000000        0x0 binaries/clkinit.o
 .note.GNU-stack
                0x0000000000000000        0x0 binaries/close.o
 .note.GNU-stack
                0x0000000000000000        0x0 binaries/conf.o
 .note.GNU-stack
                0x0000000000000000        0x0 binaries/control.o
 .note.GNU-stack
                0x0000000000000000        0x0 binaries/create.o
 .note.GNU-stack
                0x0000000000000000        0x0 binaries/early_imr.o
 .note.GNU-stack
                0x0000000000000000        0x0 binaries/evec.o
 .note.GNU-stack
                0x0000000000000000        0x0 binaries/freebuf.o
 .note.GNU-stack
                0x0000000000000000        0x0 binaries/freemem.o
 .note.GNU-stack
                0x0000000000000000        0x0 binaries/getbuf.o
 .note.GNU-stack
                0x0000000000000000        0x0 binaries/getc.o
 .note.GNU-stack
                0x0000000000000000        0x0 binaries/getdev.o
 .note.GNU-stack
                0x0000000000000000        0x0 binaries/getitem.o
 .note.GNU-stack
                0x0000000000000000        0x0 binaries/getmem.o
 .note.GNU-stack
                0x0000000000000000        0x0 binaries/getpid.o
 .note.GNU-stack
                0x0000000000000000        0x0 binaries/getprio.o
 .note.GNU-stack
                0x0000000000000000        0x0 binaries/getstk.o
 .note.GNU-stack
                0x0000000000000000        0x0 binaries/gettime.o
 .note.GNU-stack
                0x0000000000000000        0x0 binaries/getutime.o
 .note.GNU-stack
                0x0000000000000000        0x0 binaries/i386-stub.o
 .note.GNU-stack
                0x0000000000000000        0x0 binaries/init.o
 .note.GNU-stack
                0x0000000000000000        0x0 binaries/initialize.o
 .note.GNU-stack
                0x0000000000000000        0x0 binaries/insert.o
 .note.GNU-stack
                0x0000000000000000        0x0 binaries/insertd.o
 .note.GNU-stack
                0x0000000000000000        0x0 binaries/ioerr.o
 .note.GNU-stack
                0x0000000000000000        0x0 binaries/ionull.o
 .note.GNU-stack
                0x0000000000000000        0x0 binaries/kill.o
 .note.GNU-stack
                0x0000000000000000        0x0 binaries/kprintf.o
 .note.GNU-stack
                0x0000000000000000        0x0 binaries/main.o
 .note.GNU-stack
                0x0000000000000000        0x0 binaries/mark.o
 .note.GNU-stack
                0x0000000000000000        0x0 binaries/meminit.o
 .note.GNU-stack
                0x0000000000000000        0x0 binaries/mkbufpool.o
 .note.GNU-stack
                0x0000000000000000        0x0 binaries/newqueue.o
 .note.GNU-stack
                0x0000000000000000        0x0 binaries/open.o
 .note.GNU-stack
                0x0000000000000000        0x0 binaries/panic.o
 .note.GNU-stack
                0x0000000000000000        0x0 binaries/pci.o
 .note.GNU-stack
                0x0000000000000000        0x0 binaries/platinit.o
 .note.GNU-stack
                0x0000000000000000        0x0 binaries/ptclear.o
 .note.GNU-stack
                0x0000000000000000        0x0 binaries/ptcount.o
 .note.GNU-stack
                0x0000000000000000        0x0 binaries/ptcreate.o
 .note.GNU-stack
                0x0000000000000000        0x0 binaries/ptdelete.o
 .note.GNU-stack
                0x0000000000000000        0x0 binaries/ptinit.o
 .note.GNU-stack
                0x0000000000000000        0x0 binaries/ptrecv.o
 .note.GNU-stack
                0x0000000000000000        0x0 binaries/ptreset.o
 .note.GNU-stack
                0x0000000000000000        0x0 binaries/ptsend.o
 .note.GNU-stack
                0x0000000000000000        0x0 binaries/putc.o
 .note.GNU-stack
                0x0000000000000000        0x0 binaries/quark_irq.o
 .note.GNU-stack
                0x0000000000000000        0x0 binaries/quark_pdat.o
 .note.GNU-stack
                0x0000000000000000        0x0 binaries/queue.o
 .note.GNU-stack
                0x0000000000000000        0x0 binaries/read.o
 .note.GNU-stack
                0x0000000000000000        0x0 binaries/ready.o
 .note.GNU-stack
                0x0000000000000000        0x0 binaries/receive.o
 .note.GNU-stack
                0x0000000000000000        0x0 binaries/receiveq.o
 .note.GNU-stack
                0x0000000000000000        0x0 binaries/recvclr.o
 .note.GNU-stack
                0x0000000000000000        0x0 binaries/recvtime.o
 .note.GNU-stack
                0x0000000000000000        0x0 binaries/resched.o
 .note.GNU-stack
                0x0000000000000000        0x0 binaries/resume.o
 .note.GNU-stack
                0x0000000000000000        0x0 binaries/seek.o
 .note.GNU-stack
                0x0000000000000000        0x0 binaries/semcount.o
 .note.GNU-stack
                0x0000000000000000        0x0 binaries/semcreate.o
 .note.GNU-stack
                0x0000000000000000        0x0 binaries/semdelete.o
 .note.GNU-stack
                0x0000000000000000        0x0 binaries/semreset.o
 .note.GNU-stack
                0x0000000000000000        0x0 binaries/sendblk.o
 .note.GNU-stack
                0x0000000000000000        0x0 binaries/send.o
 .note.GNU-stack
                0x0000000000000000        0x0 binaries/sendq.o
 .note.GNU-stack
                0x0000000000000000        0x0 binaries/signal.o
 .note.GNU-stack
                0x0000000000000000        0x0 binaries/signaln.o
 .note.GNU-stack
                0x0000000000000000        0x0 binaries/sleep.o
 .note.GNU-stack
                0x0000000000000000        0x0 binaries/suspend.o
 .note.GNU-stack
                0x0000000000000000        0x0 binaries/unsleep.o
 .note.GNU-stack
                0x0000000000000000        0x0 binaries/userret.o
 .note.GNU-stack
                0x0000000000000000        0x0 binaries/wait.o
 .note.GNU-stack
                0x0000000000000000        0x0 binaries/wakeup.o
 .note.GNU-stack
                0x0000000000000000        0x0 binaries/write.o
 .note.GNU-stack
                0x0000000000000000        0x0 binaries/xdone.o
 .note.GNU-stack
                0x0000000000000000        0x0 binaries/yield.o
 .note.GNU-stack
                0x0000000000000000        0x0 binaries/abs.o
 .note.GNU-stack
                0x0000000000000000        0x0 binaries/atoi.o
 .note.GNU-stack
                0x0000000000000000        0x0 binaries/atol.o
 .note.GNU-stack
                0x0000000000000000        0x0 binaries/bzero.o
 .note.GNU-stack
                0x0000000000000000        0x0 binaries/ctype_.o
 .note.GNU-stack
                0x0000000000000000        0x0 binaries/doprnt.o
 .note.GNU-stack
                0x0000000000000000        0x0 binaries/doscan.o
 .note.GNU-stack
                0x0000000000000000        0x0 binaries/fdoprnt.o
 .note.GNU-stack
                0x0000000000000000        0x0 binaries/fgetc.o
 .note.GNU-stack
                0x0000000000000000        0x0 binaries/fgets.o
 .note.GNU-stack
                0x0000000000000000        0x0 binaries/fprintf.o
 .note.GNU-stack
                0x0000000000000000        0x0 binaries/fputc.o
 .note.GNU-stack
                0x0000000000000000        0x0 binaries/fputs.o
 .note.GNU-stack
                0x0000000000000000        0x0 binaries/fscanf.o
 .note.GNU-stack
                0x0000000000000000        0x0 binaries/getchar.o
 .note.GNU-stack
                0x0000000000000000        0x0 binaries/labs.o
 .note.GNU-stack
                0x0000000000000000        0x0 binaries/memchr.o
 .note.GNU-stack
                0x0000000000000000        0x0 binaries/memcmp.o
 .note.GNU-stack
                0x0000000000000000        0x0 binaries/memcpy.o
 .note.GNU-stack
                0x0000000000000000        0x0 binaries/memset.o
 .note.GNU-stack
                0x0000000000000000        0x0 binaries/printf.o
 .note.GNU-stack
                0x0000000000000000        0x0 binaries/putchar.o
 .note.GNU-stack
                0x0000000000000000        0x0 binaries/qsort.o
 .note.GNU-stack
                0x0000000000000000        0x0 binaries/rand.o
 .note.GNU-stack
                0x0000000000000000        0x0 binaries/sprintf.o
 .note.GNU-stack
                0x0000000000000000        0x0 binaries/sscanf.o
 .note.GNU-stack
                0x0000000000000000        0x0 binaries/strchr.o
 .note.GNU-stack
                0x0000000000000000        0x0 binaries/strcmp.o
 .note.GNU-stack
                0x0000000000000000        0x0 binaries/strcpy.o
 .note.GNU-stack
                0x0000000000000000        0x0 binaries/strlen.o
 .note.GNU-stack
                0x0000000000000000        0x0 binaries/strncat.o
 .note.GNU-stack
                0x0000000000000000        0x0 binaries/strncmp.o
 .note.GNU-stack
                0x0000000000000000        0x0 binaries/strncpy.o
 .note.GNU-stack
                0x0000000000000000        0x0 binaries/strnlen.o
 .note.GNU-stack
                0x0000000000000000        0x0 binaries/strrchr.o
 .note.GNU-stack
                0x0000000000000000        0x0 binaries/strstr.o
 .note.GNU-stack
                0x0000000000000000        0x0 binaries/ttycontrol.o
 .note.GNU-stack
                0x0000000000000000        0x0 binaries/ttygetc.o
 .note.GNU-stack
                0x0000000000000000        0x0 binaries/ttyhandle_in.o
 .note.GNU-stack
                0x0000000000000000        0x0 binaries/ttyhandle_out.o
 .note.GNU-stack
                0x0000000000000000        0x0 binaries/ttyhandler.o
 .note.GNU-stack
                0x0000000000000000        0x0 binaries/ttyinit.o
 .note.GNU-stack
                0x0000000000000000        0x0 binaries/ttykickout.o
 .note.GNU-stack
                0x0000000000000000        0x0 binaries/ttyputc.o
 .note.GNU-stack
                0x0000000000000000        0x0 binaries/ttyread.o
 .note.GNU-stack
                0x0000000000000000        0x0 binaries/ttywrite.o
 .note.GNU-stack
                0x0000000000000000        0x0 binaries/mount.o
 .note.GNU-stack
                0x0000000000000000        0x0 binaries/naminit.o
 .note.GNU-stack
                0x0000000000000000        0x0 binaries/nammap.o
 .note.GNU-stack
                0x0000000000000000        0x0 binaries/namopen.o
 .note.GNU-stack
                0x0000000000000000        0x0 binaries/colon2mac.o
 .note.GNU-stack
                0x0000000000000000        0x0 binaries/ethcontrol.o
 .note.GNU-stack
                0x0000000000000000        0x0 binaries/ethhandler.o
 .note.GNU-stack
                0x0000000000000000        0x0 binaries/ethinit.o
 .note.GNU-stack
                0x0000000000000000        0x0 binaries/ethmcast.o
 .note.GNU-stack
                0x0000000000000000        0x0 binaries/ethread.o
 .note.GNU-stack
                0x0000000000000000        0x0 binaries/ethwrite.o
 .note.GNU-stack
                0x0000000000000000        0x0 binaries/rdsbufalloc.o
 .note.GNU-stack
                0x0000000000000000        0x0 binaries/rdsclose.o
 .note.GNU-stack
                0x0000000000000000        0x0 binaries/rdscomm.o
 .note.GNU-stack
                0x0000000000000000        0x0 binaries/rdscontrol.o
 .note.GNU-stack
                0x0000000000000000        0x0 binaries/rdsinit.o
 .note.GNU-stack
                0x0000000000000000        0x0 binaries/rdsopen.o
 .note.GNU-stack
                0x0000000000000000        0x0 binaries/rdsprocess.o
 .note.GNU-stack
                0x0000000000000000        0x0 binaries/rdsread.o
 .note.GNU-stack
                0x0000000000000000        0x0 binaries/rdswrite.o
 .note.GNU-stack
                0x0000000000000000        0x0 binaries/ramclose.o
 .note.GNU-stack
                0x0000000000000000        0x0 binaries/raminit.o
 .note.GNU-stack
                0x0000000000000000        0x0 binaries/ramopen.o
 .note.GNU-stack
                0x0000000000000000        0x0 binaries/ramread.o
 .note.GNU-stack
                0x0000000000000000        0x0 binaries/ramwrite.o
 .note.GNU-stack
                0x0000000000000000        0x0 binaries/lfdballoc.o
 .note.GNU-stack
                0x0000000000000000        0x0 binaries/lfdbfree.o
 .note.GNU-stack
                0x0000000000000000        0x0 binaries/lfflush.o
 .note.GNU-stack
                0x0000000000000000        0x0 binaries/lfgetmode.o
 .note.GNU-stack
                0x0000000000000000        0x0 binaries/lfiballoc.o
 .note.GNU-stack
                0x0000000000000000        0x0 binaries/lfibclear.o
 .note.GNU-stack
                0x0000000000000000        0x0 binaries/lfibget.o
 .note.GNU-stack
                0x0000000000000000        0x0 binaries/lfibput.o
 .note.GNU-stack
                0x0000000000000000        0x0 binaries/lflclose.o
 .note.GNU-stack
                0x0000000000000000        0x0 binaries/lflcontrol.o
 .note.GNU-stack
                0x0000000000000000        0x0 binaries/lflgetc.o
 .note.GNU-stack
                0x0000000000000000        0x0 binaries/lflinit.o
 .note.GNU-stack
                0x0000000000000000        0x0 binaries/lflputc.o
 .note.GNU-stack
                0x0000000000000000        0x0 binaries/lflread.o
 .note.GNU-stack
                0x0000000000000000        0x0 binaries/lflseek.o
 .note.GNU-stack
                0x0000000000000000        0x0 binaries/lflwrite.o
 .note.GNU-stack
                0x0000000000000000        0x0 binaries/lfsckfmt.o
 .note.GNU-stack
                0x0000000000000000        0x0 binaries/lfscreate.o
 .note.GNU-stack
                0x0000000000000000        0x0 binaries/lfsetup.o
 .note.GNU-stack
                0x0000000000000000        0x0 binaries/lfsinit.o
 .note.GNU-stack
                0x0000000000000000        0x0 binaries/lfsopen.o
 .note.GNU-stack
                0x0000000000000000        0x0 binaries/lftruncate.o
 .note.GNU-stack
                0x0000000000000000        0x0 binaries/rflclose.o
 .note.GNU-stack
                0x0000000000000000        0x0 binaries/rflgetc.o
 .note.GNU-stack
                0x0000000000000000        0x0 binaries/rflinit.o
 .note.GNU-stack
                0x0000000000000000        0x0 binaries/rflputc.o
 .note.GNU-stack
                0x0000000000000000        0x0 binaries/rflread.o
 .note.GNU-stack
                0x0000000000000000        0x0 binaries/rflseek.o
 .note.GNU-stack
                0x0000000000000000        0x0 binaries/rflwrite.o
 .note.GNU-stack
                0x0000000000000000        0x0 binaries/rfscomm.o
 .note.GNU-stack
                0x0000000000000000        0x0 binaries/rfscontrol.o
 .note.GNU-stack
                0x0000000000000000        0x0 binaries/rfsgetmode.o
 .note.GNU-stack
                0x0000000000000000        0x0 binaries/rfsinit.o
 .note.GNU-stack
                0x0000000000000000        0x0 binaries/rfsndmsg.o
 .note.GNU-stack
                0x0000000000000000        0x0 binaries/rfsopen.o
 .note.GNU-stack
                0x0000000000000000        0x0 binaries/arp.o
 .note.GNU-stack
                0x0000000000000000        0x0 binaries/dhcp.o
 .note.GNU-stack
                0x0000000000000000        0x0 binaries/dot2ip.o
 .note.GNU-stack
                0x0000000000000000        0x0 binaries/hexdump.o
 .note.GNU-stack
                0x0000000000000000        0x0 binaries/icmp.o
 .note.GNU-stack
                0x0000000000000000        0x0 binaries/ip.o
 .note.GNU-stack
                0x0000000000000000        0x0 binaries/net.o
 .note.GNU-stack
                0x0000000000000000        0x0 binaries/netstart.o
 .note.GNU-stack
                0x0000000000000000        0x0 binaries/pdump.o
 .note.GNU-stack
                0x0000000000000000        0x0 binaries/tftp.o
 .note.GNU-stack
                0x0000000000000000        0x0 binaries/udp.o
 .note.GNU-stack
                0x0000000000000000        0x0 binaries/addargs.o
 .note.GNU-stack
                0x0000000000000000        0x0 binaries/lexan.o
 .note.GNU-stack
                0x0000000000000000        0x0 binaries/shell.o
 .note.GNU-stack
                0x0000000000000000        0x0 binaries/xsh_argecho.o
 .note.GNU-stack
                0x0000000000000000        0x0 binaries/xsh_arp.o
 .note.GNU-stack
                0x0000000000000000        0x0 binaries/xsh_cat.o
 .note.GNU-stack
                0x0000000000000000        0x0 binaries/xsh_clear.o
 .note.GNU-stack
                0x0000000000000000        0x0 binaries/xsh_date.o
 .note.GNU-stack
                0x0000000000000000        0x0 binaries/xsh_devdump.o
 .note.GNU-stack
                0x0000000000000000        0x0 binaries/xsh_echo.o
 .note.GNU-stack
                0x0000000000000000        0x0 binaries/xsh_exit.o
 .note.GNU-stack
                0x0000000000000000        0x0 binaries/xsh_help.o
 .note.GNU-stack
                0x0000000000000000        0x0 binaries/xsh_ipaddr.o
 .note.GNU-stack
                0x0000000000000000        0x0 binaries/xsh_kill.o
 .note.GNU-stack
                0x0000000000000000        0x0 binaries/xsh_memdump.o
 .note.GNU-stack
                0x0000000000000000        0x0 binaries/xsh_memstat.o
 .note.GNU-stack
                0x0000000000000000        0x0 binaries/xsh_ping.o
 .note.GNU-stack
                0x0000000000000000        0x0 binaries/xsh_ps.o
 .note.GNU-stack
                0x0000000000000000        0x0 binaries/xsh_sleep.o
 .note.GNU-stack
                0x0000000000000000        0x0 binaries/xsh_udpdump.o
 .note.GNU-stack
                0x0000000000000000        0x0 binaries/xsh_udpecho.o
 .note.GNU-stack
                0x0000000000000000        0x0 binaries/xsh_udpeserver.o
 .note.GNU-stack
                0x0000000000000000        0x0 binaries/xsh_uptime.o

.debug_ranges   0x0000000000000000      0x240
 .debug_ranges  0x0000000000000000       0x18 binaries/create.o
 .debug_ranges  0x0000000000000018       0x18 binaries/early_imr.o
 .debug_ranges  0x0000000000000030       0xc0 binaries/pci.o
 .debug_ranges  0x00000000000000f0       0x18 binaries/receiveq.o
 .debug_ranges  0x0000000000000108       0x30 binaries/doprnt.o
 .debug_ranges  0x0000000000000138       0x78 binaries/doscan.o
 .debug_ranges  0x00000000000001b0       0x60 binaries/fdoprnt.o
 .debug_ranges  0x0000000000000210       0x18 binaries/xsh_arp.o
 .debug_ranges  0x0000000000000228       0x18 binaries/xsh_memstat.o
